
traffic_simulation.elf:     file format elf32-littlenios2
traffic_simulation.elf
architecture: nios2:r1, flags 0x00000112:
EXEC_P, HAS_SYMS, D_PAGED
start address 0x00800244

Program Header:
    LOAD off    0x00001000 vaddr 0x00800000 paddr 0x00800000 align 2**12
         filesz 0x00000020 memsz 0x00000020 flags r-x
    LOAD off    0x00001020 vaddr 0x00800020 paddr 0x00800020 align 2**12
         filesz 0x00012f7c memsz 0x00012f7c flags r-x
    LOAD off    0x00013f9c vaddr 0x00812f9c paddr 0x00814c8c align 2**12
         filesz 0x00001cf0 memsz 0x00001cf0 flags rw-
    LOAD off    0x0001697c vaddr 0x0081697c paddr 0x0081697c align 2**12
         filesz 0x00000000 memsz 0x000001dc flags rw-

Sections:
Idx Name          Size      VMA       LMA       File off  Algn
  0 .entry        00000020  00800000  00800000  00001000  2**5
                  CONTENTS, ALLOC, LOAD, READONLY, CODE
  1 .exceptions   00000224  00800020  00800020  00001020  2**2
                  CONTENTS, ALLOC, LOAD, READONLY, CODE
  2 .text         000126ec  00800244  00800244  00001244  2**2
                  CONTENTS, ALLOC, LOAD, READONLY, CODE
  3 .rodata       0000066c  00812930  00812930  00013930  2**2
                  CONTENTS, ALLOC, LOAD, READONLY, DATA
  4 .rwdata       00001cf0  00812f9c  00814c8c  00013f9c  2**2
                  CONTENTS, ALLOC, LOAD, DATA, SMALL_DATA
  5 .bss          000001dc  0081697c  0081697c  0001697c  2**2
                  ALLOC, SMALL_DATA
  6 .sdram        00000000  00816b58  00816b58  00015c8c  2**0
                  CONTENTS
  7 .onchip_mem   00000000  01008000  01008000  00015c8c  2**0
                  CONTENTS
  8 .comment      00000023  00000000  00000000  00015c8c  2**0
                  CONTENTS, READONLY
  9 .debug_aranges 00001170  00000000  00000000  00015cb0  2**3
                  CONTENTS, READONLY, DEBUGGING
 10 .debug_info   0002c5bd  00000000  00000000  00016e20  2**0
                  CONTENTS, READONLY, DEBUGGING
 11 .debug_abbrev 0000b3d8  00000000  00000000  000433dd  2**0
                  CONTENTS, READONLY, DEBUGGING
 12 .debug_line   0000dad1  00000000  00000000  0004e7b5  2**0
                  CONTENTS, READONLY, DEBUGGING
 13 .debug_frame  00002944  00000000  00000000  0005c288  2**2
                  CONTENTS, READONLY, DEBUGGING
 14 .debug_str    00004322  00000000  00000000  0005ebcc  2**0
                  CONTENTS, READONLY, DEBUGGING
 15 .debug_loc    000189b5  00000000  00000000  00062eee  2**0
                  CONTENTS, READONLY, DEBUGGING
 16 .debug_alt_sim_info 00000060  00000000  00000000  0007b8a4  2**2
                  CONTENTS, READONLY, DEBUGGING
 17 .debug_ranges 00001a78  00000000  00000000  0007b908  2**3
                  CONTENTS, READONLY, DEBUGGING
 18 .thread_model 00000003  00000000  00000000  00080f7e  2**0
                  CONTENTS, READONLY
 19 .cpu          00000003  00000000  00000000  00080f81  2**0
                  CONTENTS, READONLY
 20 .qsys         00000001  00000000  00000000  00080f84  2**0
                  CONTENTS, READONLY
 21 .simulation_enabled 00000001  00000000  00000000  00080f85  2**0
                  CONTENTS, READONLY
 22 .stderr_dev   00000009  00000000  00000000  00080f86  2**0
                  CONTENTS, READONLY
 23 .stdin_dev    00000009  00000000  00000000  00080f8f  2**0
                  CONTENTS, READONLY
 24 .stdout_dev   00000009  00000000  00000000  00080f98  2**0
                  CONTENTS, READONLY
 25 .sopc_system_name 00000004  00000000  00000000  00080fa1  2**0
                  CONTENTS, READONLY
 26 .quartus_project_dir 00000050  00000000  00000000  00080fa5  2**0
                  CONTENTS, READONLY
 27 .jdi          00003538  00000000  00000000  00080ff5  2**0
                  CONTENTS, READONLY
 28 .sopcinfo     000675c3  00000000  00000000  0008452d  2**0
                  CONTENTS, READONLY
SYMBOL TABLE:
00800000 l    d  .entry	00000000 .entry
00800020 l    d  .exceptions	00000000 .exceptions
00800244 l    d  .text	00000000 .text
00812930 l    d  .rodata	00000000 .rodata
00812f9c l    d  .rwdata	00000000 .rwdata
0081697c l    d  .bss	00000000 .bss
00816b58 l    d  .sdram	00000000 .sdram
01008000 l    d  .onchip_mem	00000000 .onchip_mem
00000000 l    d  .comment	00000000 .comment
00000000 l    d  .debug_aranges	00000000 .debug_aranges
00000000 l    d  .debug_info	00000000 .debug_info
00000000 l    d  .debug_abbrev	00000000 .debug_abbrev
00000000 l    d  .debug_line	00000000 .debug_line
00000000 l    d  .debug_frame	00000000 .debug_frame
00000000 l    d  .debug_str	00000000 .debug_str
00000000 l    d  .debug_loc	00000000 .debug_loc
00000000 l    d  .debug_alt_sim_info	00000000 .debug_alt_sim_info
00000000 l    d  .debug_ranges	00000000 .debug_ranges
00000000 l    df *ABS*	00000000 ../traffic_simulation_bsp//obj/HAL/src/crt0.o
0080028c l       .text	00000000 alt_after_alt_main
00000000 l    df *ABS*	00000000 alt_irq_handler.c
00000000 l    df *ABS*	00000000 alt_instruction_exception_entry.c
00000000 l    df *ABS*	00000000 main.c
00000000 l    df *ABS*	00000000 lib2-divmod.c
00000000 l    df *ABS*	00000000 fgetc.c
00000000 l    df *ABS*	00000000 findfp.c
00801400 l     F .text	00000008 __fp_unlock
00801414 l     F .text	0000019c __sinit.part.1
008015b0 l     F .text	00000008 __fp_lock
00000000 l    df *ABS*	00000000 fopen.c
00000000 l    df *ABS*	00000000 fprintf.c
00000000 l    df *ABS*	00000000 fputc.c
00000000 l    df *ABS*	00000000 fseek.c
00000000 l    df *ABS*	00000000 fseeko.c
00000000 l    df *ABS*	00000000 fstatr.c
00000000 l    df *ABS*	00000000 fwalk.c
00000000 l    df *ABS*	00000000 fwrite.c
00000000 l    df *ABS*	00000000 impure.c
00812fb4 l     O .rwdata	00000424 impure_data
00000000 l    df *ABS*	00000000 int_errno.c
00000000 l    df *ABS*	00000000 makebuf.c
00000000 l    df *ABS*	00000000 mallocr.c
00000000 l    df *ABS*	00000000 memset.c
00000000 l    df *ABS*	00000000 openr.c
00000000 l    df *ABS*	00000000 putc.c
00000000 l    df *ABS*	00000000 refill.c
00802db4 l     F .text	0000001c lflush
00000000 l    df *ABS*	00000000 rget.c
00000000 l    df *ABS*	00000000 sbrkr.c
00000000 l    df *ABS*	00000000 stdio.c
00000000 l    df *ABS*	00000000 vfprintf.c
00812a56 l     O .rodata	00000010 zeroes.4404
008053d0 l     F .text	000000bc __sbprintf
00812a66 l     O .rodata	00000010 blanks.4403
00000000 l    df *ABS*	00000000 wbuf.c
00000000 l    df *ABS*	00000000 writer.c
00000000 l    df *ABS*	00000000 wsetup.c
00000000 l    df *ABS*	00000000 closer.c
00000000 l    df *ABS*	00000000 dtoa.c
008057ec l     F .text	00000200 quorem
00000000 l    df *ABS*	00000000 fclose.c
00000000 l    df *ABS*	00000000 fflush.c
00000000 l    df *ABS*	00000000 flags.c
00000000 l    df *ABS*	00000000 mallocr.c
00000000 l    df *ABS*	00000000 fvwrite.c
00000000 l    df *ABS*	00000000 isattyr.c
00000000 l    df *ABS*	00000000 locale.c
00813800 l     O .rwdata	00000020 lc_ctype_charset
008137e0 l     O .rwdata	00000020 lc_message_charset
00813820 l     O .rwdata	00000038 lconv
00000000 l    df *ABS*	00000000 lseekr.c
00000000 l    df *ABS*	00000000 memchr.c
00000000 l    df *ABS*	00000000 memcpy.c
00000000 l    df *ABS*	00000000 memmove.c
00000000 l    df *ABS*	00000000 mprec.c
00812a94 l     O .rodata	0000000c p05.2768
00000000 l    df *ABS*	00000000 readr.c
00000000 l    df *ABS*	00000000 mallocr.c
00000000 l    df *ABS*	00000000 s_fpclassify.c
00000000 l    df *ABS*	00000000 strcmp.c
00000000 l    df *ABS*	00000000 strlen.c
00000000 l    df *ABS*	00000000 vfprintf.c
00809a7c l     F .text	000000fc __sprint_r.part.0
00812bc8 l     O .rodata	00000010 blanks.4348
00812bb8 l     O .rodata	00000010 zeroes.4349
0080b008 l     F .text	000000bc __sbprintf
00000000 l    df *ABS*	00000000 mallocr.c
00000000 l    df *ABS*	00000000 fputwc.c
00000000 l    df *ABS*	00000000 wcrtomb.c
00000000 l    df *ABS*	00000000 wctomb_r.c
00000000 l    df *ABS*	00000000 libgcc2.c
00000000 l    df *ABS*	00000000 libgcc2.c
00000000 l    df *ABS*	00000000 adddf3.c
00000000 l    df *ABS*	00000000 divdf3.c
00000000 l    df *ABS*	00000000 eqdf2.c
00000000 l    df *ABS*	00000000 gedf2.c
00000000 l    df *ABS*	00000000 ledf2.c
00000000 l    df *ABS*	00000000 muldf3.c
00000000 l    df *ABS*	00000000 subdf3.c
00000000 l    df *ABS*	00000000 fixdfsi.c
00000000 l    df *ABS*	00000000 floatsidf.c
00000000 l    df *ABS*	00000000 floatunsidf.c
00000000 l    df *ABS*	00000000 libgcc2.c
00000000 l    df *ABS*	00000000 libgcc2.c
00000000 l    df *ABS*	00000000 alt_alarm_start.c
00000000 l    df *ABS*	00000000 alt_close.c
0080e7bc l     F .text	0000003c alt_get_errno
00000000 l    df *ABS*	00000000 alt_dev.c
0080e8c8 l     F .text	0000002c alt_dev_null_write
00000000 l    df *ABS*	00000000 alt_errno.c
00000000 l    df *ABS*	00000000 alt_fstat.c
0080e8f4 l     F .text	0000003c alt_get_errno
00000000 l    df *ABS*	00000000 alt_irq_register.c
00000000 l    df *ABS*	00000000 alt_irq_vars.c
00000000 l    df *ABS*	00000000 alt_isatty.c
0080eb60 l     F .text	0000003c alt_get_errno
00000000 l    df *ABS*	00000000 alt_load.c
0080ec40 l     F .text	00000068 alt_load_section
00000000 l    df *ABS*	00000000 alt_lseek.c
0080ed2c l     F .text	0000003c alt_get_errno
00000000 l    df *ABS*	00000000 alt_main.c
00000000 l    df *ABS*	00000000 alt_malloc_lock.c
00000000 l    df *ABS*	00000000 alt_open.c
0080ef00 l     F .text	0000003c alt_get_errno
0080ef3c l     F .text	000000c4 alt_file_locked
00000000 l    df *ABS*	00000000 alt_read.c
0080f154 l     F .text	0000003c alt_get_errno
00000000 l    df *ABS*	00000000 alt_release_fd.c
00000000 l    df *ABS*	00000000 alt_sbrk.c
00814c78 l     O .rwdata	00000004 heap_end
00000000 l    df *ABS*	00000000 alt_tick.c
00000000 l    df *ABS*	00000000 alt_write.c
0080f544 l     F .text	0000003c alt_get_errno
00000000 l    df *ABS*	00000000 alt_sys_init.c
0080f678 l     F .text	00000034 alt_dev_reg
00813a00 l     O .rwdata	00001060 jtag_uart
00814a60 l     O .rwdata	00000120 lcd
00814b80 l     O .rwdata	000000c4 uart
00000000 l    df *ABS*	00000000 altera_avalon_jtag_uart_fd.c
00000000 l    df *ABS*	00000000 altera_avalon_jtag_uart_init.c
0080f9a0 l     F .text	0000020c altera_avalon_jtag_uart_irq
0080fbac l     F .text	000000a0 altera_avalon_jtag_uart_timeout
00000000 l    df *ABS*	00000000 altera_avalon_jtag_uart_ioctl.c
00000000 l    df *ABS*	00000000 altera_avalon_jtag_uart_read.c
00000000 l    df *ABS*	00000000 altera_avalon_jtag_uart_write.c
00000000 l    df *ABS*	00000000 altera_avalon_lcd_16207.c
00814c84 l     O .rwdata	00000004 colstart
008101e4 l     F .text	000000b8 lcd_write_command
0081029c l     F .text	000000d8 lcd_write_data
00810374 l     F .text	000000d0 lcd_clear_screen
00810444 l     F .text	000001ec lcd_repaint_screen
00810630 l     F .text	000000cc lcd_scroll_up
008106fc l     F .text	000002ac lcd_handle_escape
00810e80 l     F .text	000000ac alt_lcd_16207_timeout
00000000 l    df *ABS*	00000000 altera_avalon_lcd_16207_fd.c
00000000 l    df *ABS*	00000000 altera_avalon_timer_sc.c
008110c0 l     F .text	00000078 alt_avalon_timer_sc_irq
00000000 l    df *ABS*	00000000 altera_avalon_uart_fd.c
00000000 l    df *ABS*	00000000 altera_avalon_uart_init.c
00811370 l     F .text	0000009c altera_avalon_uart_irq
0081140c l     F .text	000000e4 altera_avalon_uart_rxirq
008114f0 l     F .text	00000148 altera_avalon_uart_txirq
00000000 l    df *ABS*	00000000 altera_avalon_uart_read.c
0081168c l     F .text	0000003c alt_get_errno
00000000 l    df *ABS*	00000000 altera_avalon_uart_write.c
008118a4 l     F .text	0000003c alt_get_errno
00000000 l    df *ABS*	00000000 alt_dcache_flush_all.c
00000000 l    df *ABS*	00000000 alt_dev_llist_insert.c
00811ad4 l     F .text	0000003c alt_get_errno
00000000 l    df *ABS*	00000000 alt_do_ctors.c
00000000 l    df *ABS*	00000000 alt_do_dtors.c
00000000 l    df *ABS*	00000000 alt_find_dev.c
00000000 l    df *ABS*	00000000 alt_find_file.c
00000000 l    df *ABS*	00000000 alt_get_fd.c
00000000 l    df *ABS*	00000000 alt_icache_flush_all.c
00000000 l    df *ABS*	00000000 alt_iic.c
00000000 l    df *ABS*	00000000 alt_iic_isr_register.c
00000000 l    df *ABS*	00000000 alt_io_redirect.c
00812184 l     F .text	000000c4 alt_open_fd
00000000 l    df *ABS*	00000000 alt_usleep.c
00000000 l    df *ABS*	00000000 altera_nios2_gen2_irq.c
00000000 l    df *ABS*	00000000 alt_busy_sleep.c
00000000 l    df *ABS*	00000000 alt_icache_flush.c
00000000 l    df *ABS*	00000000 atexit.c
00000000 l    df *ABS*	00000000 ctype_.c
00812e1b l     O .rodata	00000180 _ctype_b
00000000 l    df *ABS*	00000000 exit.c
00000000 l    df *ABS*	00000000 memcmp.c
00000000 l    df *ABS*	00000000 __atexit.c
00000000 l    df *ABS*	00000000 __call_atexit.c
00000000 l    df *ABS*	00000000 alt_exit.c
008169fc g     O .bss	00000004 alt_instruction_exception_handler
00809158 g     F .text	00000074 _mprec_log10
008003ec g     F .text	0000006c lcd_set_mode
00809244 g     F .text	0000008c __any_on
00807dbc g     F .text	00000054 _isatty_r
00812aa0 g     O .rodata	00000028 __mprec_tinytens
0080ee3c g     F .text	0000007c alt_main
00812f9c g     O .rwdata	00000018 t
00816a58 g     O .bss	00000100 alt_irq
00807eec g     F .text	00000060 _lseek_r
00814c8c g       *ABS*	00000000 __flash_rwdata_start
00807420 g     F .text	000000ac __sflags
0080d1bc g     F .text	00000088 .hidden __eqdf2
00816b58 g       *ABS*	00000000 __alt_heap_start
0080b390 g     F .text	0000009c _wcrtomb_r
00816988 g     O .bss	00000004 cam_0
00803158 g     F .text	0000005c __sseek
00801750 g     F .text	00000010 __sinit
0080548c g     F .text	00000140 __swbuf_r
0081698c g     O .bss	00000004 lcd
00807e10 g     F .text	0000007c _setlocale_r
008015b8 g     F .text	00000068 __sfmoreglue
0080eedc g     F .text	00000024 __malloc_unlock
00808178 g     F .text	0000015c memmove
00801738 g     F .text	00000018 _cleanup
008082d4 g     F .text	000000a8 _Balloc
00816a28 g     O .bss	00000018 timer
0080d244 g     F .text	000000dc .hidden __gtdf2
008122f4 g     F .text	00000024 altera_nios2_gen2_irq_init
00800000 g     F .entry	0000001c __reset
00816980 g     O .bss	00000004 buttonValue
00800020 g       *ABS*	00000000 __flash_exceptions_start
00801e18 g     F .text	0000005c _fstat_r
008169c8 g     O .bss	00000004 errno
00803018 g     F .text	00000014 __srget
008030d4 g     F .text	00000008 __seofread
008169ec g     O .bss	00000004 alt_argv
0081cc44 g       *ABS*	00000000 _gp
008122c4 g     F .text	00000030 usleep
0080036c g     F .text	00000040 tlc_timer_isr
00813880 g     O .rwdata	00000180 alt_fd_list
00811c74 g     F .text	00000090 alt_find_dev
00808030 g     F .text	00000148 memcpy
008003ac g     F .text	00000040 camera_timer_isr
00801408 g     F .text	0000000c _cleanup_r
0080e4a8 g     F .text	000000dc .hidden __floatsidf
00812248 g     F .text	0000007c alt_io_redirect
0080d320 g     F .text	000000f4 .hidden __ltdf2
00816990 g     O .bss	00000004 pedNS
00812930 g       *ABS*	00000000 __DTOR_END__
00812500 g     F .text	0000009c alt_exception_cause_generated_bad_addr
00809894 g     F .text	00000074 __fpclassifyd
008090b4 g     F .text	000000a4 __ratio
0080afec g     F .text	0000001c __vfiprintf_internal
00800824 g     F .text	000000f8 pedestrian_tlc
0080fda4 g     F .text	0000021c altera_avalon_jtag_uart_read
0080124c g     F .text	00000064 .hidden __udivsi3
0080eb9c g     F .text	000000a4 isatty
00812af0 g     O .rodata	000000c8 __mprec_tens
00807e8c g     F .text	0000000c __locale_charset
00812470 g     F .text	00000090 alt_icache_flush
008169d4 g     O .bss	00000004 __malloc_top_pad
00814c54 g     O .rwdata	00000004 __mb_cur_max
00807ebc g     F .text	0000000c _localeconv_r
008086e0 g     F .text	0000003c __i2b
00807900 g     F .text	000004bc __sfvwrite_r
0080302c g     F .text	00000054 _sbrk_r
0080091c g     F .text	000002ac configurable_tlc
008092d0 g     F .text	00000060 _read_r
00814c6c g     O .rwdata	00000004 alt_max_fd
00807074 g     F .text	000000f0 _fclose_r
008073f0 g     F .text	00000030 fflush
008169d0 g     O .bss	00000004 __malloc_max_sbrked_mem
0080e9e0 g     F .text	00000180 alt_irq_register
00801308 g     F .text	00000070 _fgetc_r
0080c028 g     F .text	000008ac .hidden __adddf3
00808e5c g     F .text	0000010c __b2d
0080baf0 g     F .text	00000538 .hidden __umoddi3
0080ed68 g     F .text	000000d4 lseek
00816994 g     O .bss	00000004 timeCountCamera
00814c44 g     O .rwdata	00000004 _global_impure_ptr
00809330 g     F .text	00000564 _realloc_r
00816b58 g       *ABS*	00000000 __bss_end
00812094 g     F .text	000000f0 alt_iic_isr_register
0080f43c g     F .text	00000108 alt_tick
00816984 g     O .bss	00000004 settings_made
0080b578 g     F .text	00000578 .hidden __udivdi3
0080b2ec g     F .text	00000024 _fputwc_r
00812ac8 g     O .rodata	00000028 __mprec_bigtens
008084c4 g     F .text	00000104 __s2b
0080e584 g     F .text	000000a8 .hidden __floatunsidf
00808b9c g     F .text	00000060 __mcmp
008112c4 g     F .text	000000ac altera_avalon_uart_init
00801770 g     F .text	00000018 __fp_lock_all
00812048 g     F .text	0000004c alt_ic_irq_enabled
00816998 g     O .bss	00000004 timerCameraContext
0080f3a0 g     F .text	0000009c alt_alarm_stop
00800bc8 g     F .text	000003a4 camera_tlc
008169e4 g     O .bss	00000004 alt_irq_active
008019b8 g     F .text	00000444 _fseeko_r
01008000 g       *ABS*	00000000 __alt_mem_onchip_mem
008000fc g     F .exceptions	000000d4 alt_irq_handler
00813858 g     O .rwdata	00000028 alt_dev_null
00811a8c g     F .text	00000048 alt_dcache_flush_all
008085c8 g     F .text	00000068 __hi0bits
0080e428 g     F .text	00000080 .hidden __fixdfsi
00814c8c g       *ABS*	00000000 __ram_rwdata_end
00814c64 g     O .rwdata	00000008 alt_dev_list
008018f8 g     F .text	00000044 _fputc_r
0080f580 g     F .text	000000f8 write
00802c4c g     F .text	000000a0 _putc_r
00812f9c g       *ABS*	00000000 __ram_rodata_end
0080e930 g     F .text	000000b0 fstat
008018d4 g     F .text	00000024 fprintf
0080d320 g     F .text	000000f4 .hidden __ledf2
0081697c g     O .bss	00000004 LEDs
00808914 g     F .text	00000140 __pow5mult
00809b90 g     F .text	0000145c ___vfiprintf_internal_r
008169e0 g     O .bss	00000004 __nlocale_changed
008012b0 g     F .text	00000058 .hidden __umodsi3
00816b58 g       *ABS*	00000000 end
008109a8 g     F .text	000004d8 altera_avalon_lcd_16207_write
00801dfc g     F .text	0000001c fseeko
0081699c g     O .bss	00000004 mode
008118e0 g     F .text	000001ac altera_avalon_uart_write
0080199c g     F .text	0000001c fseek
0080f8e0 g     F .text	000000c0 altera_avalon_jtag_uart_init
008001d0 g     F .exceptions	00000074 alt_instruction_exception_entry
00812930 g       *ABS*	00000000 __CTOR_LIST__
01000000 g       *ABS*	00000000 __alt_stack_pointer
00811138 g     F .text	0000007c alt_avalon_timer_sc_init
00811214 g     F .text	00000060 altera_avalon_uart_write_fd
0080e62c g     F .text	00000064 .hidden __clzsi2
00811274 g     F .text	00000050 altera_avalon_uart_close_fd
0080ffc0 g     F .text	00000224 altera_avalon_jtag_uart_write
00801760 g     F .text	00000004 __sfp_lock_acquire
00807f4c g     F .text	000000e4 memchr
008031bc g     F .text	000021f8 ___vfprintf_internal_r
008075f0 g     F .text	00000310 _free_r
00807e98 g     F .text	00000010 __locale_mb_cur_max
0081277c g     F .text	00000180 __call_exitprocs
00802fa4 g     F .text	00000074 __srget_r
008169dc g     O .bss	00000004 __mlocale_changed
00814c4c g     O .rwdata	00000004 __malloc_sbrk_base
00800244 g     F .text	0000004c _start
008169f4 g     O .bss	00000004 _alt_tick_rate
00808a54 g     F .text	00000148 __lshift
008169a0 g     O .bss	00000004 next_traffic
008169f8 g     O .bss	00000004 _alt_nticks
0080f190 g     F .text	000000fc read
0080f6e4 g     F .text	00000098 alt_sys_init
008169a4 g     O .bss	00000004 traffic
00802bec g     F .text	00000060 _open_r
00812664 g     F .text	00000118 __register_exitproc
0080871c g     F .text	000001f8 __multiply
0080fc4c g     F .text	00000068 altera_avalon_jtag_uart_close
00812f9c g       *ABS*	00000000 __ram_rwdata_start
00812930 g       *ABS*	00000000 __ram_rodata_start
00816a00 g     O .bss	00000028 __malloc_current_mallinfo
00808f68 g     F .text	0000014c __d2b
0080f77c g     F .text	00000060 altera_avalon_jtag_uart_read_fd
00811e0c g     F .text	000000a4 alt_get_fd
00812318 g     F .text	00000158 alt_busy_sleep
00805798 g     F .text	00000054 _close_r
008125e8 g     F .text	0000007c memcmp
0080f83c g     F .text	00000050 altera_avalon_jtag_uart_close_fd
00816b58 g       *ABS*	00000000 __alt_stack_base
0080f88c g     F .text	00000054 altera_avalon_jtag_uart_ioctl_fd
00801ffc g     F .text	000000cc _fwrite_r
00805644 g     F .text	00000154 __swsetup_r
0080c8d4 g     F .text	000008e8 .hidden __divdf3
00801620 g     F .text	00000118 __sfp
008091cc g     F .text	00000078 __copybits
008133d8 g     O .rwdata	00000408 __malloc_av_
0080176c g     F .text	00000004 __sinit_lock_release
0080d414 g     F .text	00000718 .hidden __muldf3
00803080 g     F .text	00000054 __sread
00811d04 g     F .text	00000108 alt_find_file
00811b10 g     F .text	000000a4 alt_dev_llist_insert
0080eeb8 g     F .text	00000024 __malloc_lock
008018ac g     F .text	00000028 _fprintf_r
0080f2f0 g     F .text	000000b0 sbrk
00807394 g     F .text	0000005c _fflush_r
0080b0c4 g     F .text	000000c4 _calloc_r
00801894 g     F .text	00000018 fopen
0081697c g       *ABS*	00000000 __bss_start
00802ac4 g     F .text	00000128 memset
00800f6c g     F .text	000001e8 main
008169f0 g     O .bss	00000004 alt_envp
008169cc g     O .bss	00000004 __malloc_max_total_mem
0080f7dc g     F .text	00000060 altera_avalon_jtag_uart_write_fd
008055cc g     F .text	00000018 __swbuf
00810f2c g     F .text	00000134 altera_avalon_lcd_16207_init
008031b4 g     F .text	00000008 __sclose
01000000 g       *ABS*	00000000 __alt_heap_limit
00807164 g     F .text	00000014 fclose
008059ec g     F .text	00001688 _dtoa_r
008022b8 g     F .text	0000080c _malloc_r
0080b4ec g     F .text	00000030 __ascii_wctomb
00814c70 g     O .rwdata	00000004 alt_errno
00801e74 g     F .text	000000c4 _fwalk
00802cec g     F .text	000000c8 putc
00801154 g     F .text	00000084 .hidden __divsi3
008074cc g     F .text	00000124 _malloc_trim_r
00812930 g       *ABS*	00000000 __CTOR_END__
00809908 g     F .text	000000dc strcmp
00812930 g       *ABS*	00000000 __flash_rodata_start
00812930 g       *ABS*	00000000 __DTOR_LIST__
0080d1bc g     F .text	00000088 .hidden __nedf2
0080f6ac g     F .text	00000038 alt_irq_init
0080f28c g     F .text	00000064 alt_release_fd
00801378 g     F .text	00000088 fgetc
00812bd8 g     O .rodata	00000100 .hidden __clz_tab
008169d8 g     O .bss	00000004 _PathLocale
0081259c g     F .text	00000014 atexit
008055e4 g     F .text	00000060 _write_r
00807ec8 g     F .text	00000018 setlocale
008169a8 g     O .bss	00000004 timeCountMain
00814c48 g     O .rwdata	00000004 _impure_ptr
008169e8 g     O .bss	00000004 alt_argc
00807178 g     F .text	0000021c __sflush_r
00811c14 g     F .text	00000060 _do_dtors
00807eb4 g     F .text	00000008 __locale_cjk_lang
00801998 g     F .text	00000004 _fseek_r
00800458 g     F .text	0000018c timeout_data_handler
00802dd0 g     F .text	000001d4 __srefill_r
00800020 g       .exceptions	00000000 alt_irq_entry
00808df8 g     F .text	00000064 __ulp
00801788 g     F .text	00000018 __fp_unlock_all
00811060 g     F .text	00000060 altera_avalon_lcd_16207_write_fd
0080193c g     F .text	0000005c fputc
00814c5c g     O .rwdata	00000008 alt_fs_list
00816a40 g     O .bss	00000018 timer1
00800020 g       *ABS*	00000000 __ram_exceptions_start
00807ee0 g     F .text	0000000c localeconv
00811ee4 g     F .text	00000050 alt_ic_isr_register
008020c8 g     F .text	00000034 fwrite
00814c8c g       *ABS*	00000000 _edata
008169ac g     O .bss	00000004 previousMode
008111b4 g     F .text	00000060 altera_avalon_uart_read_fd
00816b58 g       *ABS*	00000000 _end
0080b188 g     F .text	00000164 __fputwc
00800244 g       *ABS*	00000000 __ram_exceptions_end
0080fcb4 g     F .text	000000f0 altera_avalon_jtag_uart_ioctl
00811fbc g     F .text	0000008c alt_ic_irq_disable
008030dc g     F .text	0000007c __swrite
00814c50 g     O .rwdata	00000004 __malloc_trim_threshold
00807ea8 g     F .text	0000000c __locale_msgcharset
008125b0 g     F .text	00000038 exit
00801f38 g     F .text	000000c4 _fwalk_reent
00808bfc g     F .text	000001fc __mdiff
008005e4 g     F .text	00000240 simple_tlc
008011d8 g     F .text	00000074 .hidden __modsi3
00814c88 g     O .rwdata	00000004 __ctype_ptr__
01000000 g       *ABS*	00000000 __alt_data_end
00800020 g     F .exceptions	00000000 alt_exception
008169b0 g     O .bss	00000004 uart
00801764 g     F .text	00000004 __sfp_lock_release
00800000 g       *ABS*	00000000 __alt_mem_sdram
00812d1a g     O .rodata	00000101 _ctype_
00811638 g     F .text	00000054 altera_avalon_uart_close
008017a0 g     F .text	000000f4 _fopen_r
008128fc g     F .text	00000034 _exit
0080e690 g     F .text	0000012c alt_alarm_start
008020fc g     F .text	000001bc __smakebuf_r
008169b4 g     O .bss	00000004 pedWE
008099e4 g     F .text	00000098 strlen
0080f000 g     F .text	00000154 open
0080d244 g     F .text	000000dc .hidden __gedf2
00814c58 g     O .rwdata	00000004 __wctomb
00809b78 g     F .text	00000018 __sprint_r
00811eb0 g     F .text	00000034 alt_icache_flush_all
00814c74 g     O .rwdata	00000004 alt_priority_mask
008169b8 g     O .bss	00000004 car_action
008169bc g     O .bss	00000004 timerContext
00811f34 g     F .text	00000088 alt_ic_irq_enable
008053b4 g     F .text	0000001c __vfprintf_internal
008116c8 g     F .text	000001dc altera_avalon_uart_read
0080b51c g     F .text	0000005c _wctomb_r
0080db2c g     F .text	000008fc .hidden __subdf3
008169c0 g     O .bss	00000004 previous_car_action
00808630 g     F .text	000000b0 __lo0bits
00814c7c g     O .rwdata	00000008 alt_alarm_list
00811bb4 g     F .text	00000060 _do_ctors
008169c4 g     O .bss	00000004 context_going_to_be_passed
0080b42c g     F .text	000000c0 wcrtomb
0080e7f8 g     F .text	000000d0 close
00800290 g     F .text	000000dc init_buttons_pio
0080eca8 g     F .text	00000084 alt_load
0080b310 g     F .text	00000080 fputwc
00801768 g     F .text	00000004 __sinit_lock_acquire
008083a4 g     F .text	00000120 __multadd
0080837c g     F .text	00000028 _Bfree



Disassembly of section .entry:

00800000 <__reset>:
#if NIOS2_ICACHE_SIZE > 0 && defined(ALT_ALLOW_CODE_AT_RESET) && (!defined(ALT_SIM_OPTIMIZE) || defined(NIOS2_ECC_PRESENT))
    /* Assume the instruction cache size is always a power of two. */
#if NIOS2_ICACHE_SIZE > 0x8000
    movhi r2, %hi(NIOS2_ICACHE_SIZE)
#else
    movui r2, NIOS2_ICACHE_SIZE
  800000:	00840014 	movui	r2,4096
#endif

0:
    initi r2
  800004:	1001483a 	initi	r2
    addi r2, r2, -NIOS2_ICACHE_LINE_SIZE
  800008:	10bff804 	addi	r2,r2,-32
    bgt r2, zero, 0b
  80000c:	00bffd16 	blt	zero,r2,800004 <__alt_mem_onchip_mem+0xff7f8004>
 * Jump to the _start entry point in the .text section if reset code
 * is allowed or if optimizing for RTL simulation.
 */
#if defined(ALT_ALLOW_CODE_AT_RESET) || defined(ALT_SIM_OPTIMIZE)
    /* Jump to the _start entry point in the .text section. */
    movhi r1, %hi(_start)
  800010:	00402034 	movhi	at,128
    ori r1, r1, %lo(_start)
  800014:	08409114 	ori	at,at,580
    jmp r1
  800018:	0800683a 	jmp	at
  80001c:	00000000 	call	0 <__alt_mem_sdram-0x800000>

Disassembly of section .exceptions:

00800020 <alt_exception>:

#else /* ALT_EXCEPTION_STACK disabled */
        /* 
         * Reserve space on normal stack for registers about to be pushed.
         */
        addi  sp, sp, -76
  800020:	deffed04 	addi	sp,sp,-76
         * documentation for details).
         *
         * Leave a gap in the stack frame at 4(sp) for the muldiv handler to
         * store zero into.
         */
        stw   ra,  0(sp)
  800024:	dfc00015 	stw	ra,0(sp)
        stw   r1,   8(sp)
  800028:	d8400215 	stw	at,8(sp)
        stw   r2,  12(sp)
  80002c:	d8800315 	stw	r2,12(sp)
        stw   r3,  16(sp)
  800030:	d8c00415 	stw	r3,16(sp)
        stw   r4,  20(sp)
  800034:	d9000515 	stw	r4,20(sp)
        stw   r5,  24(sp)
  800038:	d9400615 	stw	r5,24(sp)
        stw   r6,  28(sp)
  80003c:	d9800715 	stw	r6,28(sp)
        stw   r7,  32(sp)
  800040:	d9c00815 	stw	r7,32(sp)
        rdctl r5, estatus   /* Read early to avoid usage stall */
  800044:	000b307a 	rdctl	r5,estatus
        stw   r8,  36(sp)
  800048:	da000915 	stw	r8,36(sp)
        stw   r9,  40(sp)
  80004c:	da400a15 	stw	r9,40(sp)
        stw   r10, 44(sp)
  800050:	da800b15 	stw	r10,44(sp)
        stw   r11, 48(sp)
  800054:	dac00c15 	stw	r11,48(sp)
        stw   r12, 52(sp)
  800058:	db000d15 	stw	r12,52(sp)
        stw   r13, 56(sp)
  80005c:	db400e15 	stw	r13,56(sp)
        stw   r14, 60(sp)
  800060:	db800f15 	stw	r14,60(sp)
        stw   r15, 64(sp)
  800064:	dbc01015 	stw	r15,64(sp)
        /*
         * ea-4 contains the address of the instruction being executed
         * when the exception occured. For interrupt exceptions, we will
         * will be re-issue the isntruction. Store it in 72(sp)
         */
        stw   r5,  68(sp)  /* estatus */
  800068:	d9401115 	stw	r5,68(sp)
        addi  r15, ea, -4  /* instruction that caused exception */
  80006c:	ebffff04 	addi	r15,ea,-4
        stw   r15,  72(sp)
  800070:	dbc01215 	stw	r15,72(sp)
#else
        /*
         * Test to see if the exception was a software exception or caused 
         * by an external interrupt, and vector accordingly.
         */
        rdctl r4, ipending
  800074:	0009313a 	rdctl	r4,ipending
        andi  r2, r5, 1
  800078:	2880004c 	andi	r2,r5,1
        beq   r2, zero, .Lnot_irq
  80007c:	10000326 	beq	r2,zero,80008c <alt_exception+0x6c>
        beq   r4, zero, .Lnot_irq
  800080:	20000226 	beq	r4,zero,80008c <alt_exception+0x6c>
        /*
         * Now that all necessary registers have been preserved, call 
         * alt_irq_handler() to process the interrupts.
         */

        call alt_irq_handler
  800084:	08000fc0 	call	8000fc <alt_irq_handler>

        .section .exceptions.irqreturn, "xa"

        br    .Lexception_exit
  800088:	00000706 	br	8000a8 <alt_exception+0x88>
         * upon completion, so we write ea (address of instruction *after*
         * the one where the exception occured) into 72(sp). The actual
         * instruction that caused the exception is written in r2, which these
         * handlers will utilize.
         */
        stw ea, 72(sp) /* EA is PC+4 so will skip over instruction causing exception */
  80008c:	df401215 	stw	ea,72(sp)
.Lunknown_16bit:
        addi.n r4, r4, 2 /* Need PC+2 to skip over instruction causing exception */
        stw r4, 72(sp)

#else /* CDX is not Enabled and all instructions are 32bits */
        ldw r2, -4(ea) /* Instruction value that caused exception */
  800090:	e8bfff17 	ldw	r2,-4(ea)
         * debugger is present) or go into an infinite loop since the
         * handling behavior is undefined; in that case we will not return here.
         */

        /* Load exception-causing address as first argument (r4) */
        addi   r4, ea, -4
  800094:	e93fff04 	addi	r4,ea,-4

        /* Call the instruction-exception entry */
        call   alt_instruction_exception_entry
  800098:	08001d00 	call	8001d0 <alt_instruction_exception_entry>
         * instruction
         *
         * Return code was 0: Skip. The instruction after the exception is
         * already stored in 72(sp).
         */
        bne   r2, r0, .Lexception_exit
  80009c:	1000021e 	bne	r2,zero,8000a8 <alt_exception+0x88>

        /*
         * Otherwise, modify 72(sp) to re-issue the instruction that caused the
         * exception.
         */
        addi  r15, ea, -4  /* instruction that caused exception */
  8000a0:	ebffff04 	addi	r15,ea,-4
        stw   r15,  72(sp)
  8000a4:	dbc01215 	stw	r15,72(sp)
        /* 
         * Restore the saved registers, so that all general purpose registers 
         * have been restored to their state at the time the interrupt occured.
         */

        ldw   r5,  68(sp)
  8000a8:	d9401117 	ldw	r5,68(sp)
        ldw   ea,  72(sp)  /* This becomes the PC once eret is executed */
  8000ac:	df401217 	ldw	ea,72(sp)
        ldw   ra,   0(sp)
  8000b0:	dfc00017 	ldw	ra,0(sp)

        wrctl estatus, r5
  8000b4:	2801707a 	wrctl	estatus,r5

        ldw   r1,   8(sp)
  8000b8:	d8400217 	ldw	at,8(sp)
        ldw   r2,  12(sp)
  8000bc:	d8800317 	ldw	r2,12(sp)
        ldw   r3,  16(sp)
  8000c0:	d8c00417 	ldw	r3,16(sp)
        ldw   r4,  20(sp)
  8000c4:	d9000517 	ldw	r4,20(sp)
        ldw   r5,  24(sp)
  8000c8:	d9400617 	ldw	r5,24(sp)
        ldw   r6,  28(sp)
  8000cc:	d9800717 	ldw	r6,28(sp)
        ldw   r7,  32(sp)
  8000d0:	d9c00817 	ldw	r7,32(sp)

#if defined(ALT_EXCEPTION_STACK) && defined(ALT_STACK_CHECK)
        ldw   et, %gprel(alt_exception_old_stack_limit)(gp)
#endif

        ldw   r8,  36(sp)
  8000d4:	da000917 	ldw	r8,36(sp)
        ldw   r9,  40(sp)
  8000d8:	da400a17 	ldw	r9,40(sp)
        ldw   r10, 44(sp)
  8000dc:	da800b17 	ldw	r10,44(sp)
        ldw   r11, 48(sp)
  8000e0:	dac00c17 	ldw	r11,48(sp)
        ldw   r12, 52(sp)
  8000e4:	db000d17 	ldw	r12,52(sp)
        ldw   r13, 56(sp)
  8000e8:	db400e17 	ldw	r13,56(sp)
        ldw   r14, 60(sp)
  8000ec:	db800f17 	ldw	r14,60(sp)
        ldw   r15, 64(sp)
  8000f0:	dbc01017 	ldw	r15,64(sp)
        stw   et, %gprel(alt_stack_limit_value)(gp)
        stw   zero, %gprel(alt_exception_old_stack_limit)(gp)
#endif /* ALT_STACK_CHECK */
        ldw   sp,  76(sp)
#else /* ALT_EXCEPTION_STACK disabled */
        addi  sp, sp, 76
  8000f4:	dec01304 	addi	sp,sp,76

        /*
         * Return to the interrupted instruction.
         */

        eret
  8000f8:	ef80083a 	eret

008000fc <alt_irq_handler>:
 * instruction is present if the macro ALT_CI_INTERRUPT_VECTOR defined.
 */

void alt_irq_handler (void) __attribute__ ((section (".exceptions")));
void alt_irq_handler (void)
{
  8000fc:	defff904 	addi	sp,sp,-28
  800100:	dfc00615 	stw	ra,24(sp)
  800104:	df000515 	stw	fp,20(sp)
  800108:	df000504 	addi	fp,sp,20
  
  /*
   * Notify the operating system that we are at interrupt level.
   */ 
  
  ALT_OS_INT_ENTER();
  80010c:	0001883a 	nop
#ifndef NIOS2_EIC_PRESENT
static ALT_INLINE alt_u32 ALT_ALWAYS_INLINE alt_irq_pending (void)
{
  alt_u32 active;

  NIOS2_READ_IPENDING (active);
  800110:	0005313a 	rdctl	r2,ipending
  800114:	e0bffe15 	stw	r2,-8(fp)

  return active;
  800118:	e0bffe17 	ldw	r2,-8(fp)
   * Consider the case where the high priority interupt is asserted during
   * the interrupt entry sequence for a lower priority interrupt to see why
   * this is the case.
   */

  active = alt_irq_pending ();
  80011c:	e0bffb15 	stw	r2,-20(fp)

  do
  {
    i = 0;
  800120:	e03ffd15 	stw	zero,-12(fp)
    mask = 1;
  800124:	00800044 	movi	r2,1
  800128:	e0bffc15 	stw	r2,-16(fp)
     * called to clear the interrupt condition.
     */

    do
    {
      if (active & mask)
  80012c:	e0fffb17 	ldw	r3,-20(fp)
  800130:	e0bffc17 	ldw	r2,-16(fp)
  800134:	1884703a 	and	r2,r3,r2
  800138:	10001426 	beq	r2,zero,80018c <alt_irq_handler+0x90>
      { 
#ifdef ALT_ENHANCED_INTERRUPT_API_PRESENT
        alt_irq[i].handler(alt_irq[i].context); 
  80013c:	00802074 	movhi	r2,129
  800140:	109a9604 	addi	r2,r2,27224
  800144:	e0fffd17 	ldw	r3,-12(fp)
  800148:	180690fa 	slli	r3,r3,3
  80014c:	10c5883a 	add	r2,r2,r3
  800150:	10c00017 	ldw	r3,0(r2)
  800154:	00802074 	movhi	r2,129
  800158:	109a9604 	addi	r2,r2,27224
  80015c:	e13ffd17 	ldw	r4,-12(fp)
  800160:	200890fa 	slli	r4,r4,3
  800164:	1105883a 	add	r2,r2,r4
  800168:	10800104 	addi	r2,r2,4
  80016c:	10800017 	ldw	r2,0(r2)
  800170:	1009883a 	mov	r4,r2
  800174:	183ee83a 	callr	r3
#else
        alt_irq[i].handler(alt_irq[i].context, i); 
#endif
        break;
  800178:	0001883a 	nop
#ifndef NIOS2_EIC_PRESENT
static ALT_INLINE alt_u32 ALT_ALWAYS_INLINE alt_irq_pending (void)
{
  alt_u32 active;

  NIOS2_READ_IPENDING (active);
  80017c:	0005313a 	rdctl	r2,ipending
  800180:	e0bfff15 	stw	r2,-4(fp)

  return active;
  800184:	e0bfff17 	ldw	r2,-4(fp)
  800188:	00000706 	br	8001a8 <alt_irq_handler+0xac>
      }
      mask <<= 1;
  80018c:	e0bffc17 	ldw	r2,-16(fp)
  800190:	1085883a 	add	r2,r2,r2
  800194:	e0bffc15 	stw	r2,-16(fp)
      i++;
  800198:	e0bffd17 	ldw	r2,-12(fp)
  80019c:	10800044 	addi	r2,r2,1
  8001a0:	e0bffd15 	stw	r2,-12(fp)

    } while (1);
  8001a4:	003fe106 	br	80012c <__alt_mem_onchip_mem+0xff7f812c>

    active = alt_irq_pending ();
  8001a8:	e0bffb15 	stw	r2,-20(fp)
    
  } while (active);
  8001ac:	e0bffb17 	ldw	r2,-20(fp)
  8001b0:	103fdb1e 	bne	r2,zero,800120 <__alt_mem_onchip_mem+0xff7f8120>

  /*
   * Notify the operating system that interrupt processing is complete.
   */ 

  ALT_OS_INT_EXIT();
  8001b4:	0001883a 	nop
}
  8001b8:	0001883a 	nop
  8001bc:	e037883a 	mov	sp,fp
  8001c0:	dfc00117 	ldw	ra,4(sp)
  8001c4:	df000017 	ldw	fp,0(sp)
  8001c8:	dec00204 	addi	sp,sp,8
  8001cc:	f800283a 	ret

008001d0 <alt_instruction_exception_entry>:
 * that handler if it has been registered. Absent a handler, it will
 * break break or hang as discussed below.
 */
int 
alt_instruction_exception_entry (alt_u32 exception_pc)
{
  8001d0:	defffb04 	addi	sp,sp,-20
  8001d4:	dfc00415 	stw	ra,16(sp)
  8001d8:	df000315 	stw	fp,12(sp)
  8001dc:	df000304 	addi	fp,sp,12
  8001e0:	e13fff15 	stw	r4,-4(fp)
 * NIOS2_EXCEPTION_CAUSE_NOT_PRESENT. Your handling routine should
 * check the validity of the cause argument before proceeding.
 */
#ifdef NIOS2_HAS_EXTRA_EXCEPTION_INFO
  /* Get exception cause & "badaddr" */
  NIOS2_READ_EXCEPTION(cause);
  8001e4:	000531fa 	rdctl	r2,exception
  8001e8:	e0bffd15 	stw	r2,-12(fp)
  cause = ( (cause & NIOS2_EXCEPTION_REG_CAUSE_MASK) >>
  8001ec:	e0bffd17 	ldw	r2,-12(fp)
  8001f0:	10801f0c 	andi	r2,r2,124
  8001f4:	1004d0ba 	srli	r2,r2,2
  8001f8:	e0bffd15 	stw	r2,-12(fp)
              NIOS2_EXCEPTION_REG_CAUSE_OFST );

  NIOS2_READ_BADADDR(badaddr);
  8001fc:	0005333a 	rdctl	r2,badaddr
  800200:	e0bffe15 	stw	r2,-8(fp)
#else
  cause = NIOS2_EXCEPTION_CAUSE_NOT_PRESENT;
  badaddr = 0;
#endif /* NIOS2_HAS_EXTRA_EXCEPTION_INFO */

  if(alt_instruction_exception_handler) {
  800204:	d0a76e17 	ldw	r2,-25160(gp)
  800208:	10000726 	beq	r2,zero,800228 <alt_instruction_exception_entry+0x58>
     * Call handler. Its return value indicates whether the exception-causing
     * instruction should be re-issued. The code that called us,
     * alt_eceptions_entry.S, will look at this value and adjust the ea
     * register as necessary
     */
    return alt_instruction_exception_handler(cause, exception_pc, badaddr);
  80020c:	d0a76e17 	ldw	r2,-25160(gp)
  800210:	e0fffd17 	ldw	r3,-12(fp)
  800214:	e1bffe17 	ldw	r6,-8(fp)
  800218:	e17fff17 	ldw	r5,-4(fp)
  80021c:	1809883a 	mov	r4,r3
  800220:	103ee83a 	callr	r2
  800224:	00000206 	br	800230 <alt_instruction_exception_entry+0x60>
   *    (a peripheral which negates its interrupt output before its
   *    interrupt handler has been executed will cause spurious interrupts)
   */
  else {
#ifdef NIOS2_HAS_DEBUG_STUB
    NIOS2_BREAK();
  800228:	003da03a 	break	0
      ;
#endif /* NIOS2_HAS_DEBUG_STUB */
  }

  /* We should not get here. Remove compiler warning. */
  return NIOS2_EXCEPTION_RETURN_REISSUE_INST;
  80022c:	0005883a 	mov	r2,zero
}
  800230:	e037883a 	mov	sp,fp
  800234:	dfc00117 	ldw	ra,4(sp)
  800238:	df000017 	ldw	fp,0(sp)
  80023c:	dec00204 	addi	sp,sp,8
  800240:	f800283a 	ret

Disassembly of section .text:

00800244 <_start>:

    /* Assume the data cache size is always a power of two. */
#if NIOS2_DCACHE_SIZE > 0x8000
    movhi r2, %hi(NIOS2_DCACHE_SIZE)
#else
    movui r2, NIOS2_DCACHE_SIZE
  800244:	00820014 	movui	r2,2048
#endif

0:
    initd 0(r2)
  800248:	10000033 	initd	0(r2)
#ifdef NIOS2_ECC_PRESENT
    addi r2, r2, -4
#else
    addi r2, r2, -NIOS2_DCACHE_LINE_SIZE
  80024c:	10bff804 	addi	r2,r2,-32
#endif
    bgt r2, zero, 0b
  800250:	00bffd16 	blt	zero,r2,800248 <__alt_mem_onchip_mem+0xff7f8248>

    /*
     * Now that the caches are initialized, set up the stack pointer and global pointer.
     * The values provided by the linker are assumed to be correctly aligned.
     */
    movhi sp, %hi(__alt_stack_pointer)
  800254:	06c04034 	movhi	sp,256
    ori sp, sp, %lo(__alt_stack_pointer)
  800258:	dec00014 	ori	sp,sp,0
    movhi gp, %hi(_gp)
  80025c:	06802074 	movhi	gp,129
    ori gp, gp, %lo(_gp)
  800260:	d6b31114 	ori	gp,gp,52292
 */
#ifndef ALT_SIM_OPTIMIZE
    /* Log that the BSS is about to be cleared. */
    ALT_LOG_PUTS(alt_log_msg_bss)

    movhi r2, %hi(__bss_start)
  800264:	00802074 	movhi	r2,129
    ori r2, r2, %lo(__bss_start)
  800268:	109a5f14 	ori	r2,r2,27004

    movhi r3, %hi(__bss_end)
  80026c:	00c02074 	movhi	r3,129
    ori r3, r3, %lo(__bss_end)
  800270:	18dad614 	ori	r3,r3,27480

    beq r2, r3, 1f
  800274:	10c00326 	beq	r2,r3,800284 <_start+0x40>

0:
    stw zero, (r2)
  800278:	10000015 	stw	zero,0(r2)
    addi r2, r2, 4
  80027c:	10800104 	addi	r2,r2,4
    bltu r2, r3, 0b
  800280:	10fffd36 	bltu	r2,r3,800278 <__alt_mem_onchip_mem+0xff7f8278>
     * section aren't defined until alt_load() has been called).
     */
    mov   et, zero
#endif

    call alt_load
  800284:	080eca80 	call	80eca8 <alt_load>

    /* Log that alt_main is about to be called. */
    ALT_LOG_PUTS(alt_log_msg_alt_main)

    /* Call the C entry point. It should never return. */
    call alt_main
  800288:	080ee3c0 	call	80ee3c <alt_main>

0080028c <alt_after_alt_main>:

    /* Wait in infinite loop in case alt_main does return. */
alt_after_alt_main:
    br alt_after_alt_main
  80028c:	003fff06 	br	80028c <__alt_mem_onchip_mem+0xff7f828c>

00800290 <init_buttons_pio>:
/*
 * Initialisers
 */
//Initializes the interrupts for the NS, EW pedestrian and car drive through buttons

void init_buttons_pio(void* context, alt_u32 id){
  800290:	defffc04 	addi	sp,sp,-16
  800294:	df000315 	stw	fp,12(sp)
  800298:	df000304 	addi	fp,sp,12
  80029c:	e13ffe15 	stw	r4,-8(fp)
  8002a0:	e17fff15 	stw	r5,-4(fp)
	int* temp = (int*) context; // need to cast the context first before using it
  8002a4:	e0bffe17 	ldw	r2,-8(fp)
  8002a8:	e0bffd15 	stw	r2,-12(fp)
	(*temp) = IORD_ALTERA_AVALON_PIO_EDGE_CAP(KEYS_BASE);
  8002ac:	00804074 	movhi	r2,257
  8002b0:	10842704 	addi	r2,r2,4252
  8002b4:	10c00037 	ldwio	r3,0(r2)
  8002b8:	e0bffd17 	ldw	r2,-12(fp)
  8002bc:	10c00015 	stw	r3,0(r2)

	// Clear the edge capture register
	IOWR_ALTERA_AVALON_PIO_EDGE_CAP(KEYS_BASE, 0);
  8002c0:	0007883a 	mov	r3,zero
  8002c4:	00804074 	movhi	r2,257
  8002c8:	10842704 	addi	r2,r2,4252
  8002cc:	10c00035 	stwio	r3,0(r2)

	if ((*temp) == 1 && traffic != RG){
  8002d0:	e0bffd17 	ldw	r2,-12(fp)
  8002d4:	10800017 	ldw	r2,0(r2)
  8002d8:	10800058 	cmpnei	r2,r2,1
  8002dc:	1000051e 	bne	r2,zero,8002f4 <init_buttons_pio+0x64>
  8002e0:	d0a75817 	ldw	r2,-25248(gp)
  8002e4:	10800060 	cmpeqi	r2,r2,1
  8002e8:	1000021e 	bne	r2,zero,8002f4 <init_buttons_pio+0x64>
		pedNS = pressed;
  8002ec:	00800044 	movi	r2,1
  8002f0:	d0a75315 	stw	r2,-25268(gp)
	}
	if ((*temp) == 2 && traffic != GR){
  8002f4:	e0bffd17 	ldw	r2,-12(fp)
  8002f8:	10800017 	ldw	r2,0(r2)
  8002fc:	10800098 	cmpnei	r2,r2,2
  800300:	1000051e 	bne	r2,zero,800318 <init_buttons_pio+0x88>
  800304:	d0a75817 	ldw	r2,-25248(gp)
  800308:	108000e0 	cmpeqi	r2,r2,3
  80030c:	1000021e 	bne	r2,zero,800318 <init_buttons_pio+0x88>
		pedWE = pressed;
  800310:	00800044 	movi	r2,1
  800314:	d0a75c15 	stw	r2,-25232(gp)
	}
	if ((*temp) == 4 && mode == 4){
  800318:	e0bffd17 	ldw	r2,-12(fp)
  80031c:	10800017 	ldw	r2,0(r2)
  800320:	10800118 	cmpnei	r2,r2,4
  800324:	10000a1e 	bne	r2,zero,800350 <init_buttons_pio+0xc0>
  800328:	d0a75617 	ldw	r2,-25256(gp)
  80032c:	10800118 	cmpnei	r2,r2,4
  800330:	1000071e 	bne	r2,zero,800350 <init_buttons_pio+0xc0>
		if(car_action == exited){
  800334:	d0a75d17 	ldw	r2,-25228(gp)
  800338:	10800058 	cmpnei	r2,r2,1
  80033c:	1000021e 	bne	r2,zero,800348 <init_buttons_pio+0xb8>
			car_action = entered;
  800340:	d0275d15 	stw	zero,-25228(gp)
  800344:	00000206 	br	800350 <init_buttons_pio+0xc0>
		}else{
			car_action = exited;
  800348:	00800044 	movi	r2,1
  80034c:	d0a75d15 	stw	r2,-25228(gp)
		}
	}

	(*temp) = 0;
  800350:	e0bffd17 	ldw	r2,-12(fp)
  800354:	10000015 	stw	zero,0(r2)
}
  800358:	0001883a 	nop
  80035c:	e037883a 	mov	sp,fp
  800360:	df000017 	ldw	fp,0(sp)
  800364:	dec00104 	addi	sp,sp,4
  800368:	f800283a 	ret

0080036c <tlc_timer_isr>:

/*
 * Interrupts
 */
//handler for the traffic light timer interrupt
alt_u32 tlc_timer_isr(void* context){
  80036c:	defffd04 	addi	sp,sp,-12
  800370:	df000215 	stw	fp,8(sp)
  800374:	df000204 	addi	fp,sp,8
  800378:	e13fff15 	stw	r4,-4(fp)
	int *timeCount = (int*) context;
  80037c:	e0bfff17 	ldw	r2,-4(fp)
  800380:	e0bffe15 	stw	r2,-8(fp)
	(*timeCount)++;
  800384:	e0bffe17 	ldw	r2,-8(fp)
  800388:	10800017 	ldw	r2,0(r2)
  80038c:	10c00044 	addi	r3,r2,1
  800390:	e0bffe17 	ldw	r2,-8(fp)
  800394:	10c00015 	stw	r3,0(r2)
	return 100;
  800398:	00801904 	movi	r2,100
}
  80039c:	e037883a 	mov	sp,fp
  8003a0:	df000017 	ldw	fp,0(sp)
  8003a4:	dec00104 	addi	sp,sp,4
  8003a8:	f800283a 	ret

008003ac <camera_timer_isr>:

//handler for the red light camera timer interrupt
alt_u32 camera_timer_isr(void* context){
  8003ac:	defffd04 	addi	sp,sp,-12
  8003b0:	df000215 	stw	fp,8(sp)
  8003b4:	df000204 	addi	fp,sp,8
  8003b8:	e13fff15 	stw	r4,-4(fp)
	int *timeCountCamera = (int*) context;
  8003bc:	e0bfff17 	ldw	r2,-4(fp)
  8003c0:	e0bffe15 	stw	r2,-8(fp)
	(*timeCountCamera)++;
  8003c4:	e0bffe17 	ldw	r2,-8(fp)
  8003c8:	10800017 	ldw	r2,0(r2)
  8003cc:	10c00044 	addi	r3,r2,1
  8003d0:	e0bffe17 	ldw	r2,-8(fp)
  8003d4:	10c00015 	stw	r3,0(r2)
	return 100;
  8003d8:	00801904 	movi	r2,100
}
  8003dc:	e037883a 	mov	sp,fp
  8003e0:	df000017 	ldw	fp,0(sp)
  8003e4:	dec00104 	addi	sp,sp,4
  8003e8:	f800283a 	ret

008003ec <lcd_set_mode>:

/*
 * Setters
 */
//write the current mode to the LCD
void lcd_set_mode(){
  8003ec:	defffe04 	addi	sp,sp,-8
  8003f0:	dfc00115 	stw	ra,4(sp)
  8003f4:	df000015 	stw	fp,0(sp)
  8003f8:	d839883a 	mov	fp,sp
	if(lcd != NULL){
  8003fc:	d0a75217 	ldw	r2,-25272(gp)
  800400:	10000f26 	beq	r2,zero,800440 <lcd_set_mode+0x54>
		fprintf(lcd, "%c%s", ESC, CLEAR_LCD_STRING);
  800404:	d0a75217 	ldw	r2,-25272(gp)
  800408:	01c02074 	movhi	r7,129
  80040c:	39ca4c04 	addi	r7,r7,10544
  800410:	018006c4 	movi	r6,27
  800414:	01402074 	movhi	r5,129
  800418:	294a4d04 	addi	r5,r5,10548
  80041c:	1009883a 	mov	r4,r2
  800420:	08018d40 	call	8018d4 <fprintf>
		fprintf(lcd, "MODE: %d\n", mode);
  800424:	d0a75217 	ldw	r2,-25272(gp)
  800428:	d0e75617 	ldw	r3,-25256(gp)
  80042c:	180d883a 	mov	r6,r3
  800430:	01402074 	movhi	r5,129
  800434:	294a4f04 	addi	r5,r5,10556
  800438:	1009883a 	mov	r4,r2
  80043c:	08018d40 	call	8018d4 <fprintf>
	}
}
  800440:	0001883a 	nop
  800444:	e037883a 	mov	sp,fp
  800448:	dfc00117 	ldw	ra,4(sp)
  80044c:	df000017 	ldw	fp,0(sp)
  800450:	dec00204 	addi	sp,sp,8
  800454:	f800283a 	ret

00800458 <timeout_data_handler>:

//parses the configuration string and updates the timeouts
void timeout_data_handler(){
  800458:	defffa04 	addi	sp,sp,-24
  80045c:	dfc00515 	stw	ra,20(sp)
  800460:	df000415 	stw	fp,16(sp)
  800464:	df000404 	addi	fp,sp,16
	if(uart != NULL && settings_made == 0){
  800468:	d0a75b17 	ldw	r2,-25236(gp)
  80046c:	10000926 	beq	r2,zero,800494 <timeout_data_handler+0x3c>
  800470:	d0a75017 	ldw	r2,-25280(gp)
  800474:	1000071e 	bne	r2,zero,800494 <timeout_data_handler+0x3c>
		fprintf(uart, "Insert t values in format t1,t2,t3,t4,t5,t6[\\r]\\n:\r\n");
  800478:	d0a75b17 	ldw	r2,-25236(gp)
  80047c:	100f883a 	mov	r7,r2
  800480:	01800d04 	movi	r6,52
  800484:	01400044 	movi	r5,1
  800488:	01002074 	movhi	r4,129
  80048c:	210a5204 	addi	r4,r4,10568
  800490:	08020c80 	call	8020c8 <fwrite>
	}

	//Iterator for data position
	char data;
	char num_digits[4];
	int num_numbers = 0, num_commas = 0;
  800494:	e03ffc15 	stw	zero,-16(fp)
  800498:	e03ffd15 	stw	zero,-12(fp)

	//Check that the string format is correct and enter is pressed.
	while(IORD_ALTERA_AVALON_PIO_DATA(SWITCHES_BASE) == 6 && settings_made == 0){
  80049c:	00004406 	br	8005b0 <timeout_data_handler+0x158>
		data = fgetc(uart);
  8004a0:	d0a75b17 	ldw	r2,-25236(gp)
  8004a4:	1009883a 	mov	r4,r2
  8004a8:	08013780 	call	801378 <fgetc>
  8004ac:	e0bffe05 	stb	r2,-8(fp)

		//Check that the data input consists only commas
		if((data >= '0' && data <= '9') || data == ','){
  8004b0:	e0bffe07 	ldb	r2,-8(fp)
  8004b4:	10800c10 	cmplti	r2,r2,48
  8004b8:	1000031e 	bne	r2,zero,8004c8 <timeout_data_handler+0x70>
  8004bc:	e0bffe07 	ldb	r2,-8(fp)
  8004c0:	10800e90 	cmplti	r2,r2,58
  8004c4:	1000031e 	bne	r2,zero,8004d4 <timeout_data_handler+0x7c>
  8004c8:	e0bffe07 	ldb	r2,-8(fp)
  8004cc:	10800b18 	cmpnei	r2,r2,44
  8004d0:	1000371e 	bne	r2,zero,8005b0 <timeout_data_handler+0x158>

			// Check that the player is entering digit number.
			if(num_numbers < 4 && data != ',' && num_commas < 6){
  8004d4:	e0bffc17 	ldw	r2,-16(fp)
  8004d8:	10800108 	cmpgei	r2,r2,4
  8004dc:	1000141e 	bne	r2,zero,800530 <timeout_data_handler+0xd8>
  8004e0:	e0bffe07 	ldb	r2,-8(fp)
  8004e4:	10800b20 	cmpeqi	r2,r2,44
  8004e8:	1000111e 	bne	r2,zero,800530 <timeout_data_handler+0xd8>
  8004ec:	e0bffd17 	ldw	r2,-12(fp)
  8004f0:	10800188 	cmpgei	r2,r2,6
  8004f4:	10000e1e 	bne	r2,zero,800530 <timeout_data_handler+0xd8>
				num_digits[num_numbers] = data;
  8004f8:	e0fffe44 	addi	r3,fp,-7
  8004fc:	e0bffc17 	ldw	r2,-16(fp)
  800500:	1885883a 	add	r2,r3,r2
  800504:	e0fffe03 	ldbu	r3,-8(fp)
  800508:	10c00005 	stb	r3,0(r2)
				num_numbers++;
  80050c:	e0bffc17 	ldw	r2,-16(fp)
  800510:	10800044 	addi	r2,r2,1
  800514:	e0bffc15 	stw	r2,-16(fp)
				fprintf(uart, "%c", data);
  800518:	d0e75b17 	ldw	r3,-25236(gp)
  80051c:	e0bffe07 	ldb	r2,-8(fp)
  800520:	180b883a 	mov	r5,r3
  800524:	1009883a 	mov	r4,r2
  800528:	080193c0 	call	80193c <fputc>
  80052c:	00002006 	br	8005b0 <timeout_data_handler+0x158>

			// Check that the player confirms the five t numbers using comma
			}else if(num_numbers > 0 && data == ',' && num_commas < 6){
  800530:	e0bffc17 	ldw	r2,-16(fp)
  800534:	0080190e 	bge	zero,r2,80059c <timeout_data_handler+0x144>
  800538:	e0bffe07 	ldb	r2,-8(fp)
  80053c:	10800b18 	cmpnei	r2,r2,44
  800540:	1000161e 	bne	r2,zero,80059c <timeout_data_handler+0x144>
  800544:	e0bffd17 	ldw	r2,-12(fp)
  800548:	10800188 	cmpgei	r2,r2,6
  80054c:	1000131e 	bne	r2,zero,80059c <timeout_data_handler+0x144>
				num_numbers = 0;
  800550:	e03ffc15 	stw	zero,-16(fp)
				t[num_commas] = (int) num_digits;
  800554:	e13ffe44 	addi	r4,fp,-7
  800558:	00802074 	movhi	r2,129
  80055c:	108be704 	addi	r2,r2,12188
  800560:	e0fffd17 	ldw	r3,-12(fp)
  800564:	18c7883a 	add	r3,r3,r3
  800568:	18c7883a 	add	r3,r3,r3
  80056c:	10c5883a 	add	r2,r2,r3
  800570:	11000015 	stw	r4,0(r2)
				num_commas++;
  800574:	e0bffd17 	ldw	r2,-12(fp)
  800578:	10800044 	addi	r2,r2,1
  80057c:	e0bffd15 	stw	r2,-12(fp)

				// Clear data
				num_digits[0] = 0;
  800580:	e03ffe45 	stb	zero,-7(fp)
				fprintf(uart, "%c", data);
  800584:	d0e75b17 	ldw	r3,-25236(gp)
  800588:	e0bffe07 	ldb	r2,-8(fp)
  80058c:	180b883a 	mov	r5,r3
  800590:	1009883a 	mov	r4,r2
  800594:	080193c0 	call	80193c <fputc>
  800598:	00000506 	br	8005b0 <timeout_data_handler+0x158>

			// Finally escape this loop.
			}else if(num_commas > 5){
  80059c:	e0bffd17 	ldw	r2,-12(fp)
  8005a0:	10800190 	cmplti	r2,r2,6
  8005a4:	1000021e 	bne	r2,zero,8005b0 <timeout_data_handler+0x158>
				settings_made = 1;
  8005a8:	00800044 	movi	r2,1
  8005ac:	d0a75015 	stw	r2,-25280(gp)
	char data;
	char num_digits[4];
	int num_numbers = 0, num_commas = 0;

	//Check that the string format is correct and enter is pressed.
	while(IORD_ALTERA_AVALON_PIO_DATA(SWITCHES_BASE) == 6 && settings_made == 0){
  8005b0:	00804074 	movhi	r2,257
  8005b4:	10842804 	addi	r2,r2,4256
  8005b8:	10800037 	ldwio	r2,0(r2)
  8005bc:	10800198 	cmpnei	r2,r2,6
  8005c0:	1000021e 	bne	r2,zero,8005cc <timeout_data_handler+0x174>
  8005c4:	d0a75017 	ldw	r2,-25280(gp)
  8005c8:	103fb526 	beq	r2,zero,8004a0 <__alt_mem_onchip_mem+0xff7f84a0>
		for (int k=0; k<sizeof(temp); k++){
			t[PosT] = temp(k)*pow(10, sizeof(temp)-k);
		}
		PosT = PosT + 1;*/

}
  8005cc:	0001883a 	nop
  8005d0:	e037883a 	mov	sp,fp
  8005d4:	dfc00117 	ldw	ra,4(sp)
  8005d8:	df000017 	ldw	fp,0(sp)
  8005dc:	dec00204 	addi	sp,sp,8
  8005e0:	f800283a 	ret

008005e4 <simple_tlc>:

/*
 * Implementers
 */
//implements the simple traffic light controller
void simple_tlc(){
  8005e4:	defffe04 	addi	sp,sp,-8
  8005e8:	dfc00115 	stw	ra,4(sp)
  8005ec:	df000015 	stw	fp,0(sp)
  8005f0:	d839883a 	mov	fp,sp
	switch(traffic){
  8005f4:	d0a75817 	ldw	r2,-25248(gp)
  8005f8:	10c00168 	cmpgeui	r3,r2,5
  8005fc:	1800831e 	bne	r3,zero,80080c <simple_tlc+0x228>
  800600:	100690ba 	slli	r3,r2,2
  800604:	00802034 	movhi	r2,128
  800608:	10818604 	addi	r2,r2,1560
  80060c:	1885883a 	add	r2,r3,r2
  800610:	10800017 	ldw	r2,0(r2)
  800614:	1000683a 	jmp	r2
  800618:	0080062c 	andhi	r2,zero,24
  80061c:	00800690 	cmplti	r2,zero,26
  800620:	008006f0 	cmpltui	r2,zero,27
  800624:	0080073c 	xorhi	r2,zero,28
  800628:	0080079c 	xori	r2,zero,30
		case RR:
			// Set green leds
			LEDs = TWE_R + TNS_R;
  80062c:	00800904 	movi	r2,36
  800630:	d0a74e15 	stw	r2,-25288(gp)

			if(timeCountMain >= 5){
  800634:	d0a75917 	ldw	r2,-25244(gp)
  800638:	10800150 	cmplti	r2,r2,5
  80063c:	10006a1e 	bne	r2,zero,8007e8 <simple_tlc+0x204>
				// next traffic decides whether to go RG or GR
				if(next_traffic == NS){
  800640:	d0a75717 	ldw	r2,-25252(gp)
  800644:	1000031e 	bne	r2,zero,800654 <simple_tlc+0x70>
					traffic = RG;
  800648:	00800044 	movi	r2,1
  80064c:	d0a75815 	stw	r2,-25248(gp)
  800650:	00000206 	br	80065c <simple_tlc+0x78>
				}else{
					traffic = GR;
  800654:	008000c4 	movi	r2,3
  800658:	d0a75815 	stw	r2,-25248(gp)
				}
				alt_alarm_stop(&timer);
  80065c:	01002074 	movhi	r4,129
  800660:	211a8a04 	addi	r4,r4,27176
  800664:	080f3a00 	call	80f3a0 <alt_alarm_stop>
				timeCountMain = 0;
  800668:	d0275915 	stw	zero,-25244(gp)
				// start the timer, with timeout of 0.5 seconds
				alt_alarm_start(&timer, 100, tlc_timer_isr, timerContext);
  80066c:	d0a75e17 	ldw	r2,-25224(gp)
  800670:	100f883a 	mov	r7,r2
  800674:	01802034 	movhi	r6,128
  800678:	3180db04 	addi	r6,r6,876
  80067c:	01401904 	movi	r5,100
  800680:	01002074 	movhi	r4,129
  800684:	211a8a04 	addi	r4,r4,27176
  800688:	080e6900 	call	80e690 <alt_alarm_start>
			}

			break;
  80068c:	00005606 	br	8007e8 <simple_tlc+0x204>

		case RG:
			// Set green leds
			LEDs = TWE_R + TNS_G;
  800690:	00800844 	movi	r2,33
  800694:	d0a74e15 	stw	r2,-25288(gp)

			// Set next traffic not to re-do RG
			if(next_traffic == NS){
  800698:	d0a75717 	ldw	r2,-25252(gp)
  80069c:	1000021e 	bne	r2,zero,8006a8 <simple_tlc+0xc4>
				next_traffic = WE;
  8006a0:	00800044 	movi	r2,1
  8006a4:	d0a75715 	stw	r2,-25252(gp)
			}

			if(timeCountMain >= 60){
  8006a8:	d0a75917 	ldw	r2,-25244(gp)
  8006ac:	10800f10 	cmplti	r2,r2,60
  8006b0:	10004f1e 	bne	r2,zero,8007f0 <simple_tlc+0x20c>
				traffic = RY;
  8006b4:	00800084 	movi	r2,2
  8006b8:	d0a75815 	stw	r2,-25248(gp)

				alt_alarm_stop(&timer);
  8006bc:	01002074 	movhi	r4,129
  8006c0:	211a8a04 	addi	r4,r4,27176
  8006c4:	080f3a00 	call	80f3a0 <alt_alarm_stop>
				timeCountMain = 0;
  8006c8:	d0275915 	stw	zero,-25244(gp)
				// start the timer, with timeout of 6 seconds
				alt_alarm_start(&timer, 100, tlc_timer_isr, timerContext);
  8006cc:	d0a75e17 	ldw	r2,-25224(gp)
  8006d0:	100f883a 	mov	r7,r2
  8006d4:	01802034 	movhi	r6,128
  8006d8:	3180db04 	addi	r6,r6,876
  8006dc:	01401904 	movi	r5,100
  8006e0:	01002074 	movhi	r4,129
  8006e4:	211a8a04 	addi	r4,r4,27176
  8006e8:	080e6900 	call	80e690 <alt_alarm_start>
			}
			break;
  8006ec:	00004006 	br	8007f0 <simple_tlc+0x20c>
		case RY:
			// Set green leds
			LEDs = TWE_R + TNS_Y;
  8006f0:	00800884 	movi	r2,34
  8006f4:	d0a74e15 	stw	r2,-25288(gp)

			if(timeCountMain >= 20){
  8006f8:	d0a75917 	ldw	r2,-25244(gp)
  8006fc:	10800510 	cmplti	r2,r2,20
  800700:	10003d1e 	bne	r2,zero,8007f8 <simple_tlc+0x214>
				traffic = RR;
  800704:	d0275815 	stw	zero,-25248(gp)

				alt_alarm_stop(&timer);
  800708:	01002074 	movhi	r4,129
  80070c:	211a8a04 	addi	r4,r4,27176
  800710:	080f3a00 	call	80f3a0 <alt_alarm_stop>
				timeCountMain = 0;
  800714:	d0275915 	stw	zero,-25244(gp)
				// start the timer, with timeout of 6 seconds
				alt_alarm_start(&timer, 100, tlc_timer_isr, timerContext);
  800718:	d0a75e17 	ldw	r2,-25224(gp)
  80071c:	100f883a 	mov	r7,r2
  800720:	01802034 	movhi	r6,128
  800724:	3180db04 	addi	r6,r6,876
  800728:	01401904 	movi	r5,100
  80072c:	01002074 	movhi	r4,129
  800730:	211a8a04 	addi	r4,r4,27176
  800734:	080e6900 	call	80e690 <alt_alarm_start>
			}
			break;
  800738:	00002f06 	br	8007f8 <simple_tlc+0x214>
		case GR:
			// Set green leds
			LEDs = TWE_G + TNS_R;
  80073c:	00800304 	movi	r2,12
  800740:	d0a74e15 	stw	r2,-25288(gp)

			// Set next traffic not to re-do GR
			if(next_traffic == WE){
  800744:	d0a75717 	ldw	r2,-25252(gp)
  800748:	10800058 	cmpnei	r2,r2,1
  80074c:	1000011e 	bne	r2,zero,800754 <simple_tlc+0x170>
				next_traffic = NS;
  800750:	d0275715 	stw	zero,-25252(gp)
			}
			if(timeCountMain >= 60){
  800754:	d0a75917 	ldw	r2,-25244(gp)
  800758:	10800f10 	cmplti	r2,r2,60
  80075c:	1000281e 	bne	r2,zero,800800 <simple_tlc+0x21c>
				traffic = YR;
  800760:	00800104 	movi	r2,4
  800764:	d0a75815 	stw	r2,-25248(gp)

				alt_alarm_stop(&timer);
  800768:	01002074 	movhi	r4,129
  80076c:	211a8a04 	addi	r4,r4,27176
  800770:	080f3a00 	call	80f3a0 <alt_alarm_stop>
				timeCountMain = 0;
  800774:	d0275915 	stw	zero,-25244(gp)
				// start the timer, with timeout of 6 seconds
				alt_alarm_start(&timer, 100, tlc_timer_isr, timerContext);
  800778:	d0a75e17 	ldw	r2,-25224(gp)
  80077c:	100f883a 	mov	r7,r2
  800780:	01802034 	movhi	r6,128
  800784:	3180db04 	addi	r6,r6,876
  800788:	01401904 	movi	r5,100
  80078c:	01002074 	movhi	r4,129
  800790:	211a8a04 	addi	r4,r4,27176
  800794:	080e6900 	call	80e690 <alt_alarm_start>
			}
			break;
  800798:	00001906 	br	800800 <simple_tlc+0x21c>
		case YR:
			// Set green leds
			LEDs = TWE_Y + TNS_R;
  80079c:	00800504 	movi	r2,20
  8007a0:	d0a74e15 	stw	r2,-25288(gp)

			if(timeCountMain >= 20){
  8007a4:	d0a75917 	ldw	r2,-25244(gp)
  8007a8:	10800510 	cmplti	r2,r2,20
  8007ac:	1000161e 	bne	r2,zero,800808 <simple_tlc+0x224>
				traffic = RR;
  8007b0:	d0275815 	stw	zero,-25248(gp)

				alt_alarm_stop(&timer);
  8007b4:	01002074 	movhi	r4,129
  8007b8:	211a8a04 	addi	r4,r4,27176
  8007bc:	080f3a00 	call	80f3a0 <alt_alarm_stop>
				timeCountMain = 0;
  8007c0:	d0275915 	stw	zero,-25244(gp)
				// start the timer, with timeout of 6 seconds
				alt_alarm_start(&timer, 100, tlc_timer_isr, timerContext);
  8007c4:	d0a75e17 	ldw	r2,-25224(gp)
  8007c8:	100f883a 	mov	r7,r2
  8007cc:	01802034 	movhi	r6,128
  8007d0:	3180db04 	addi	r6,r6,876
  8007d4:	01401904 	movi	r5,100
  8007d8:	01002074 	movhi	r4,129
  8007dc:	211a8a04 	addi	r4,r4,27176
  8007e0:	080e6900 	call	80e690 <alt_alarm_start>
			}
			break;
  8007e4:	00000806 	br	800808 <simple_tlc+0x224>
				timeCountMain = 0;
				// start the timer, with timeout of 0.5 seconds
				alt_alarm_start(&timer, 100, tlc_timer_isr, timerContext);
			}

			break;
  8007e8:	0001883a 	nop
  8007ec:	00000706 	br	80080c <simple_tlc+0x228>
				alt_alarm_stop(&timer);
				timeCountMain = 0;
				// start the timer, with timeout of 6 seconds
				alt_alarm_start(&timer, 100, tlc_timer_isr, timerContext);
			}
			break;
  8007f0:	0001883a 	nop
  8007f4:	00000506 	br	80080c <simple_tlc+0x228>
				alt_alarm_stop(&timer);
				timeCountMain = 0;
				// start the timer, with timeout of 6 seconds
				alt_alarm_start(&timer, 100, tlc_timer_isr, timerContext);
			}
			break;
  8007f8:	0001883a 	nop
  8007fc:	00000306 	br	80080c <simple_tlc+0x228>
				alt_alarm_stop(&timer);
				timeCountMain = 0;
				// start the timer, with timeout of 6 seconds
				alt_alarm_start(&timer, 100, tlc_timer_isr, timerContext);
			}
			break;
  800800:	0001883a 	nop
  800804:	00000106 	br	80080c <simple_tlc+0x228>
				alt_alarm_stop(&timer);
				timeCountMain = 0;
				// start the timer, with timeout of 6 seconds
				alt_alarm_start(&timer, 100, tlc_timer_isr, timerContext);
			}
			break;
  800808:	0001883a 	nop
	}
}
  80080c:	0001883a 	nop
  800810:	e037883a 	mov	sp,fp
  800814:	dfc00117 	ldw	ra,4(sp)
  800818:	df000017 	ldw	fp,0(sp)
  80081c:	dec00204 	addi	sp,sp,8
  800820:	f800283a 	ret

00800824 <pedestrian_tlc>:

//implements the pedestrian traffic light controller
void pedestrian_tlc(){
  800824:	deffff04 	addi	sp,sp,-4
  800828:	df000015 	stw	fp,0(sp)
  80082c:	d839883a 	mov	fp,sp
	 // Any state (pedNS and/or pedWE) that is in pressed state.
	 // Set respective running pedestrian signal back to idle on yellow light.
	switch(traffic){
  800830:	d0a75817 	ldw	r2,-25248(gp)
  800834:	10c000a0 	cmpeqi	r3,r2,2
  800838:	1800161e 	bne	r3,zero,800894 <pedestrian_tlc+0x70>
  80083c:	10c000e8 	cmpgeui	r3,r2,3
  800840:	1800031e 	bne	r3,zero,800850 <pedestrian_tlc+0x2c>
  800844:	10800060 	cmpeqi	r2,r2,1
  800848:	1000061e 	bne	r2,zero,800864 <pedestrian_tlc+0x40>
			if(pedWE == running){
				pedWE = idle;
			}
			break;
		default:
			break;
  80084c:	00002e06 	br	800908 <pedestrian_tlc+0xe4>

//implements the pedestrian traffic light controller
void pedestrian_tlc(){
	 // Any state (pedNS and/or pedWE) that is in pressed state.
	 // Set respective running pedestrian signal back to idle on yellow light.
	switch(traffic){
  800850:	10c000e0 	cmpeqi	r3,r2,3
  800854:	1800141e 	bne	r3,zero,8008a8 <pedestrian_tlc+0x84>
  800858:	10800120 	cmpeqi	r2,r2,4
  80085c:	10001e1e 	bne	r2,zero,8008d8 <pedestrian_tlc+0xb4>
			if(pedWE == running){
				pedWE = idle;
			}
			break;
		default:
			break;
  800860:	00002906 	br	800908 <pedestrian_tlc+0xe4>
void pedestrian_tlc(){
	 // Any state (pedNS and/or pedWE) that is in pressed state.
	 // Set respective running pedestrian signal back to idle on yellow light.
	switch(traffic){
		case RG:
			if(pedNS == pressed){
  800864:	d0a75317 	ldw	r2,-25268(gp)
  800868:	10800058 	cmpnei	r2,r2,1
  80086c:	1000021e 	bne	r2,zero,800878 <pedestrian_tlc+0x54>
				pedNS = running;
  800870:	00800084 	movi	r2,2
  800874:	d0a75315 	stw	r2,-25268(gp)
			}
			if(pedNS == running){
  800878:	d0a75317 	ldw	r2,-25268(gp)
  80087c:	10800098 	cmpnei	r2,r2,2
  800880:	10001a1e 	bne	r2,zero,8008ec <pedestrian_tlc+0xc8>
				LEDs = LEDs + PNS_G;
  800884:	d0a74e17 	ldw	r2,-25288(gp)
  800888:	10801004 	addi	r2,r2,64
  80088c:	d0a74e15 	stw	r2,-25288(gp)
			}
			break;
  800890:	00001606 	br	8008ec <pedestrian_tlc+0xc8>
		case RY:
			if(pedNS == running){
  800894:	d0a75317 	ldw	r2,-25268(gp)
  800898:	10800098 	cmpnei	r2,r2,2
  80089c:	1000151e 	bne	r2,zero,8008f4 <pedestrian_tlc+0xd0>
				pedNS = idle;
  8008a0:	d0275315 	stw	zero,-25268(gp)
			}
			break;
  8008a4:	00001306 	br	8008f4 <pedestrian_tlc+0xd0>
		case GR:
			if(pedWE == pressed){
  8008a8:	d0a75c17 	ldw	r2,-25232(gp)
  8008ac:	10800058 	cmpnei	r2,r2,1
  8008b0:	1000021e 	bne	r2,zero,8008bc <pedestrian_tlc+0x98>
				pedWE = running;
  8008b4:	00800084 	movi	r2,2
  8008b8:	d0a75c15 	stw	r2,-25232(gp)
			}
			if(pedWE == running){
  8008bc:	d0a75c17 	ldw	r2,-25232(gp)
  8008c0:	10800098 	cmpnei	r2,r2,2
  8008c4:	10000d1e 	bne	r2,zero,8008fc <pedestrian_tlc+0xd8>
				LEDs = LEDs + PWE_G;
  8008c8:	d0a74e17 	ldw	r2,-25288(gp)
  8008cc:	10802004 	addi	r2,r2,128
  8008d0:	d0a74e15 	stw	r2,-25288(gp)
			}
			break;
  8008d4:	00000906 	br	8008fc <pedestrian_tlc+0xd8>
		case YR:
			if(pedWE == running){
  8008d8:	d0a75c17 	ldw	r2,-25232(gp)
  8008dc:	10800098 	cmpnei	r2,r2,2
  8008e0:	1000081e 	bne	r2,zero,800904 <pedestrian_tlc+0xe0>
				pedWE = idle;
  8008e4:	d0275c15 	stw	zero,-25232(gp)
			}
			break;
  8008e8:	00000606 	br	800904 <pedestrian_tlc+0xe0>
				pedNS = running;
			}
			if(pedNS == running){
				LEDs = LEDs + PNS_G;
			}
			break;
  8008ec:	0001883a 	nop
  8008f0:	00000506 	br	800908 <pedestrian_tlc+0xe4>
		case RY:
			if(pedNS == running){
				pedNS = idle;
			}
			break;
  8008f4:	0001883a 	nop
  8008f8:	00000306 	br	800908 <pedestrian_tlc+0xe4>
				pedWE = running;
			}
			if(pedWE == running){
				LEDs = LEDs + PWE_G;
			}
			break;
  8008fc:	0001883a 	nop
  800900:	00000106 	br	800908 <pedestrian_tlc+0xe4>
		case YR:
			if(pedWE == running){
				pedWE = idle;
			}
			break;
  800904:	0001883a 	nop
		default:
			break;
	}
}
  800908:	0001883a 	nop
  80090c:	e037883a 	mov	sp,fp
  800910:	df000017 	ldw	fp,0(sp)
  800914:	dec00104 	addi	sp,sp,4
  800918:	f800283a 	ret

0080091c <configurable_tlc>:

//implements the configurable traffic light controller
void configurable_tlc(){
  80091c:	defffe04 	addi	sp,sp,-8
  800920:	dfc00115 	stw	ra,4(sp)
  800924:	df000015 	stw	fp,0(sp)
  800928:	d839883a 	mov	fp,sp
	switch(traffic){
  80092c:	d0a75817 	ldw	r2,-25248(gp)
  800930:	10c00168 	cmpgeui	r3,r2,5
  800934:	18009e1e 	bne	r3,zero,800bb0 <configurable_tlc+0x294>
  800938:	100690ba 	slli	r3,r2,2
  80093c:	00802034 	movhi	r2,128
  800940:	10825404 	addi	r2,r2,2384
  800944:	1885883a 	add	r2,r3,r2
  800948:	10800017 	ldw	r2,0(r2)
  80094c:	1000683a 	jmp	r2
  800950:	00800964 	muli	r2,zero,37
  800954:	00800a14 	movui	r2,40
  800958:	00800a7c 	xorhi	r2,zero,41
  80095c:	00800ad0 	cmplti	r2,zero,43
  800960:	00800b38 	rdprs	r2,zero,44
		case RR:
			// Set green leds
			LEDs = TWE_R + TNS_R;
  800964:	00800904 	movi	r2,36
  800968:	d0a74e15 	stw	r2,-25288(gp)

			// next traffic decides whether to go RG or GR
			if(next_traffic == NS && timeCountMain >= t[0]){
  80096c:	d0a75717 	ldw	r2,-25252(gp)
  800970:	1000141e 	bne	r2,zero,8009c4 <configurable_tlc+0xa8>
  800974:	00802074 	movhi	r2,129
  800978:	108be704 	addi	r2,r2,12188
  80097c:	10800017 	ldw	r2,0(r2)
  800980:	d0e75917 	ldw	r3,-25244(gp)
  800984:	18800f16 	blt	r3,r2,8009c4 <configurable_tlc+0xa8>
				traffic = RG;
  800988:	00800044 	movi	r2,1
  80098c:	d0a75815 	stw	r2,-25248(gp)
				alt_alarm_stop(&timer);
  800990:	01002074 	movhi	r4,129
  800994:	211a8a04 	addi	r4,r4,27176
  800998:	080f3a00 	call	80f3a0 <alt_alarm_stop>
				timeCountMain = 0;
  80099c:	d0275915 	stw	zero,-25244(gp)

				// start the timer, with timeout
				alt_alarm_start(&timer, 100, tlc_timer_isr, timerContext);
  8009a0:	d0a75e17 	ldw	r2,-25224(gp)
  8009a4:	100f883a 	mov	r7,r2
  8009a8:	01802034 	movhi	r6,128
  8009ac:	3180db04 	addi	r6,r6,876
  8009b0:	01401904 	movi	r5,100
  8009b4:	01002074 	movhi	r4,129
  8009b8:	211a8a04 	addi	r4,r4,27176
  8009bc:	080e6900 	call	80e690 <alt_alarm_start>
				timeCountMain = 0;

				// start the timer, with timeout
				alt_alarm_start(&timer, 100, tlc_timer_isr, timerContext);
			}
			break;
  8009c0:	00007206 	br	800b8c <configurable_tlc+0x270>
				alt_alarm_stop(&timer);
				timeCountMain = 0;

				// start the timer, with timeout
				alt_alarm_start(&timer, 100, tlc_timer_isr, timerContext);
			}else if(timeCountMain >= t[3]){
  8009c4:	00802074 	movhi	r2,129
  8009c8:	108be704 	addi	r2,r2,12188
  8009cc:	10800317 	ldw	r2,12(r2)
  8009d0:	d0e75917 	ldw	r3,-25244(gp)
  8009d4:	18806d16 	blt	r3,r2,800b8c <configurable_tlc+0x270>
				traffic = GR;
  8009d8:	008000c4 	movi	r2,3
  8009dc:	d0a75815 	stw	r2,-25248(gp)
				alt_alarm_stop(&timer);
  8009e0:	01002074 	movhi	r4,129
  8009e4:	211a8a04 	addi	r4,r4,27176
  8009e8:	080f3a00 	call	80f3a0 <alt_alarm_stop>
				timeCountMain = 0;
  8009ec:	d0275915 	stw	zero,-25244(gp)

				// start the timer, with timeout
				alt_alarm_start(&timer, 100, tlc_timer_isr, timerContext);
  8009f0:	d0a75e17 	ldw	r2,-25224(gp)
  8009f4:	100f883a 	mov	r7,r2
  8009f8:	01802034 	movhi	r6,128
  8009fc:	3180db04 	addi	r6,r6,876
  800a00:	01401904 	movi	r5,100
  800a04:	01002074 	movhi	r4,129
  800a08:	211a8a04 	addi	r4,r4,27176
  800a0c:	080e6900 	call	80e690 <alt_alarm_start>
			}
			break;
  800a10:	00005e06 	br	800b8c <configurable_tlc+0x270>

		case RG:
			// Set green leds
			LEDs = TWE_R + TNS_G;
  800a14:	00800844 	movi	r2,33
  800a18:	d0a74e15 	stw	r2,-25288(gp)

			// Set next traffic not to re-do RG
			if(next_traffic == NS){
  800a1c:	d0a75717 	ldw	r2,-25252(gp)
  800a20:	1000021e 	bne	r2,zero,800a2c <configurable_tlc+0x110>
				next_traffic = WE;
  800a24:	00800044 	movi	r2,1
  800a28:	d0a75715 	stw	r2,-25252(gp)
			}

			if(timeCountMain >= t[1]){
  800a2c:	00802074 	movhi	r2,129
  800a30:	108be704 	addi	r2,r2,12188
  800a34:	10800117 	ldw	r2,4(r2)
  800a38:	d0e75917 	ldw	r3,-25244(gp)
  800a3c:	18805516 	blt	r3,r2,800b94 <configurable_tlc+0x278>
				traffic = RY;
  800a40:	00800084 	movi	r2,2
  800a44:	d0a75815 	stw	r2,-25248(gp)

				alt_alarm_stop(&timer);
  800a48:	01002074 	movhi	r4,129
  800a4c:	211a8a04 	addi	r4,r4,27176
  800a50:	080f3a00 	call	80f3a0 <alt_alarm_stop>
				timeCountMain = 0;
  800a54:	d0275915 	stw	zero,-25244(gp)
				// start the timer, with timeout
				alt_alarm_start(&timer, 100, tlc_timer_isr, timerContext);
  800a58:	d0a75e17 	ldw	r2,-25224(gp)
  800a5c:	100f883a 	mov	r7,r2
  800a60:	01802034 	movhi	r6,128
  800a64:	3180db04 	addi	r6,r6,876
  800a68:	01401904 	movi	r5,100
  800a6c:	01002074 	movhi	r4,129
  800a70:	211a8a04 	addi	r4,r4,27176
  800a74:	080e6900 	call	80e690 <alt_alarm_start>
			}
			break;
  800a78:	00004606 	br	800b94 <configurable_tlc+0x278>
		case RY:
			// Set green leds
			LEDs = TWE_R + TNS_Y;
  800a7c:	00800884 	movi	r2,34
  800a80:	d0a74e15 	stw	r2,-25288(gp)

			if(timeCountMain >= t[2]){
  800a84:	00802074 	movhi	r2,129
  800a88:	108be704 	addi	r2,r2,12188
  800a8c:	10800217 	ldw	r2,8(r2)
  800a90:	d0e75917 	ldw	r3,-25244(gp)
  800a94:	18804116 	blt	r3,r2,800b9c <configurable_tlc+0x280>
				traffic = RR;
  800a98:	d0275815 	stw	zero,-25248(gp)

				alt_alarm_stop(&timer);
  800a9c:	01002074 	movhi	r4,129
  800aa0:	211a8a04 	addi	r4,r4,27176
  800aa4:	080f3a00 	call	80f3a0 <alt_alarm_stop>
				timeCountMain = 0;
  800aa8:	d0275915 	stw	zero,-25244(gp)
				// start the timer, with timeout
				alt_alarm_start(&timer, 100, tlc_timer_isr, timerContext);
  800aac:	d0a75e17 	ldw	r2,-25224(gp)
  800ab0:	100f883a 	mov	r7,r2
  800ab4:	01802034 	movhi	r6,128
  800ab8:	3180db04 	addi	r6,r6,876
  800abc:	01401904 	movi	r5,100
  800ac0:	01002074 	movhi	r4,129
  800ac4:	211a8a04 	addi	r4,r4,27176
  800ac8:	080e6900 	call	80e690 <alt_alarm_start>
			}
			break;
  800acc:	00003306 	br	800b9c <configurable_tlc+0x280>
		case GR:
			// Set green leds
			LEDs = TWE_G + TNS_R;
  800ad0:	00800304 	movi	r2,12
  800ad4:	d0a74e15 	stw	r2,-25288(gp)

			// Set next traffic not to re-do GR
			if(next_traffic == WE){
  800ad8:	d0a75717 	ldw	r2,-25252(gp)
  800adc:	10800058 	cmpnei	r2,r2,1
  800ae0:	1000011e 	bne	r2,zero,800ae8 <configurable_tlc+0x1cc>
				next_traffic = NS;
  800ae4:	d0275715 	stw	zero,-25252(gp)
			}
			if(timeCountMain >= t[4]){
  800ae8:	00802074 	movhi	r2,129
  800aec:	108be704 	addi	r2,r2,12188
  800af0:	10800417 	ldw	r2,16(r2)
  800af4:	d0e75917 	ldw	r3,-25244(gp)
  800af8:	18802a16 	blt	r3,r2,800ba4 <configurable_tlc+0x288>
				traffic = YR;
  800afc:	00800104 	movi	r2,4
  800b00:	d0a75815 	stw	r2,-25248(gp)

				alt_alarm_stop(&timer);
  800b04:	01002074 	movhi	r4,129
  800b08:	211a8a04 	addi	r4,r4,27176
  800b0c:	080f3a00 	call	80f3a0 <alt_alarm_stop>
				timeCountMain = 0;
  800b10:	d0275915 	stw	zero,-25244(gp)
				// start the timer, with timeout
				alt_alarm_start(&timer, 100, tlc_timer_isr, timerContext);
  800b14:	d0a75e17 	ldw	r2,-25224(gp)
  800b18:	100f883a 	mov	r7,r2
  800b1c:	01802034 	movhi	r6,128
  800b20:	3180db04 	addi	r6,r6,876
  800b24:	01401904 	movi	r5,100
  800b28:	01002074 	movhi	r4,129
  800b2c:	211a8a04 	addi	r4,r4,27176
  800b30:	080e6900 	call	80e690 <alt_alarm_start>
			}
			break;
  800b34:	00001b06 	br	800ba4 <configurable_tlc+0x288>
		case YR:
			// Set green leds
			LEDs = TWE_Y + TNS_R;
  800b38:	00800504 	movi	r2,20
  800b3c:	d0a74e15 	stw	r2,-25288(gp)

			if(timeCountMain >= t[5]){
  800b40:	00802074 	movhi	r2,129
  800b44:	108be704 	addi	r2,r2,12188
  800b48:	10800517 	ldw	r2,20(r2)
  800b4c:	d0e75917 	ldw	r3,-25244(gp)
  800b50:	18801616 	blt	r3,r2,800bac <configurable_tlc+0x290>
				traffic = RR;
  800b54:	d0275815 	stw	zero,-25248(gp)

				alt_alarm_stop(&timer);
  800b58:	01002074 	movhi	r4,129
  800b5c:	211a8a04 	addi	r4,r4,27176
  800b60:	080f3a00 	call	80f3a0 <alt_alarm_stop>
				timeCountMain = 0;
  800b64:	d0275915 	stw	zero,-25244(gp)
				// start the timer, with timeout
				alt_alarm_start(&timer, 100, tlc_timer_isr, timerContext);
  800b68:	d0a75e17 	ldw	r2,-25224(gp)
  800b6c:	100f883a 	mov	r7,r2
  800b70:	01802034 	movhi	r6,128
  800b74:	3180db04 	addi	r6,r6,876
  800b78:	01401904 	movi	r5,100
  800b7c:	01002074 	movhi	r4,129
  800b80:	211a8a04 	addi	r4,r4,27176
  800b84:	080e6900 	call	80e690 <alt_alarm_start>
			}
			break;
  800b88:	00000806 	br	800bac <configurable_tlc+0x290>
				timeCountMain = 0;

				// start the timer, with timeout
				alt_alarm_start(&timer, 100, tlc_timer_isr, timerContext);
			}
			break;
  800b8c:	0001883a 	nop
  800b90:	00000706 	br	800bb0 <configurable_tlc+0x294>
				alt_alarm_stop(&timer);
				timeCountMain = 0;
				// start the timer, with timeout
				alt_alarm_start(&timer, 100, tlc_timer_isr, timerContext);
			}
			break;
  800b94:	0001883a 	nop
  800b98:	00000506 	br	800bb0 <configurable_tlc+0x294>
				alt_alarm_stop(&timer);
				timeCountMain = 0;
				// start the timer, with timeout
				alt_alarm_start(&timer, 100, tlc_timer_isr, timerContext);
			}
			break;
  800b9c:	0001883a 	nop
  800ba0:	00000306 	br	800bb0 <configurable_tlc+0x294>
				alt_alarm_stop(&timer);
				timeCountMain = 0;
				// start the timer, with timeout
				alt_alarm_start(&timer, 100, tlc_timer_isr, timerContext);
			}
			break;
  800ba4:	0001883a 	nop
  800ba8:	00000106 	br	800bb0 <configurable_tlc+0x294>
				alt_alarm_stop(&timer);
				timeCountMain = 0;
				// start the timer, with timeout
				alt_alarm_start(&timer, 100, tlc_timer_isr, timerContext);
			}
			break;
  800bac:	0001883a 	nop
	}
}
  800bb0:	0001883a 	nop
  800bb4:	e037883a 	mov	sp,fp
  800bb8:	dfc00117 	ldw	ra,4(sp)
  800bbc:	df000017 	ldw	fp,0(sp)
  800bc0:	dec00204 	addi	sp,sp,8
  800bc4:	f800283a 	ret

00800bc8 <camera_tlc>:

//implements the traffic light controller with integrated camera
void camera_tlc(){
  800bc8:	defffc04 	addi	sp,sp,-16
  800bcc:	dfc00315 	stw	ra,12(sp)
  800bd0:	df000215 	stw	fp,8(sp)
  800bd4:	dc400115 	stw	r17,4(sp)
  800bd8:	dc000015 	stw	r16,0(sp)
  800bdc:	df000204 	addi	fp,sp,8
	if(timeCountCamera >= 20 && cam_0 == monitoring){
  800be0:	d0a75417 	ldw	r2,-25264(gp)
  800be4:	10800510 	cmplti	r2,r2,20
  800be8:	10000e1e 	bne	r2,zero,800c24 <camera_tlc+0x5c>
  800bec:	d0a75117 	ldw	r2,-25276(gp)
  800bf0:	10800058 	cmpnei	r2,r2,1
  800bf4:	10000b1e 	bne	r2,zero,800c24 <camera_tlc+0x5c>
		if(uart != NULL){
  800bf8:	d0a75b17 	ldw	r2,-25236(gp)
  800bfc:	10000726 	beq	r2,zero,800c1c <camera_tlc+0x54>
			fprintf(uart, "Snapshot Taken!\r\n");
  800c00:	d0a75b17 	ldw	r2,-25236(gp)
  800c04:	100f883a 	mov	r7,r2
  800c08:	01800444 	movi	r6,17
  800c0c:	01400044 	movi	r5,1
  800c10:	01002074 	movhi	r4,129
  800c14:	210a6004 	addi	r4,r4,10624
  800c18:	08020c80 	call	8020c8 <fwrite>
		}
		cam_0 = taken;
  800c1c:	00800084 	movi	r2,2
  800c20:	d0a75115 	stw	r2,-25276(gp)
	}
	switch(traffic){
  800c24:	d0a75817 	ldw	r2,-25248(gp)
  800c28:	10c000a0 	cmpeqi	r3,r2,2
  800c2c:	18003f1e 	bne	r3,zero,800d2c <camera_tlc+0x164>
  800c30:	10800120 	cmpeqi	r2,r2,4
  800c34:	10007a26 	beq	r2,zero,800e20 <camera_tlc+0x258>
		case YR:

			// Check that car has entered/exited

			//First if statement checks for recent change in car action.
			if(car_action == entered && previous_car_action != car_action){
  800c38:	d0a75d17 	ldw	r2,-25228(gp)
  800c3c:	1000171e 	bne	r2,zero,800c9c <camera_tlc+0xd4>
  800c40:	d0e75f17 	ldw	r3,-25220(gp)
  800c44:	d0a75d17 	ldw	r2,-25228(gp)
  800c48:	18801426 	beq	r3,r2,800c9c <camera_tlc+0xd4>
				if(uart != NULL){
  800c4c:	d0a75b17 	ldw	r2,-25236(gp)
  800c50:	10000726 	beq	r2,zero,800c70 <camera_tlc+0xa8>
					fprintf(uart, "Camera activated\r\n");
  800c54:	d0a75b17 	ldw	r2,-25236(gp)
  800c58:	100f883a 	mov	r7,r2
  800c5c:	01800484 	movi	r6,18
  800c60:	01400044 	movi	r5,1
  800c64:	01002074 	movhi	r4,129
  800c68:	210a6504 	addi	r4,r4,10644
  800c6c:	08020c80 	call	8020c8 <fwrite>
				}
				alt_alarm_start(&timer1, 100, camera_timer_isr, timerCameraContext);
  800c70:	d0a75517 	ldw	r2,-25260(gp)
  800c74:	100f883a 	mov	r7,r2
  800c78:	01802034 	movhi	r6,128
  800c7c:	3180eb04 	addi	r6,r6,940
  800c80:	01401904 	movi	r5,100
  800c84:	01002074 	movhi	r4,129
  800c88:	211a9004 	addi	r4,r4,27200
  800c8c:	080e6900 	call	80e690 <alt_alarm_start>
				cam_0 = monitoring;
  800c90:	00800044 	movi	r2,1
  800c94:	d0a75115 	stw	r2,-25276(gp)

				alt_alarm_stop(&timer1);
				timeCountCamera = 0;
				cam_0 = standby;
			}
			break;
  800c98:	0000a506 	br	800f30 <camera_tlc+0x368>
				}
				alt_alarm_start(&timer1, 100, camera_timer_isr, timerCameraContext);
				cam_0 = monitoring;

			//Check that the car has exited. Report time taken
			}else if(cam_0 != standby && car_action == exited){
  800c9c:	d0a75117 	ldw	r2,-25276(gp)
  800ca0:	1000a326 	beq	r2,zero,800f30 <camera_tlc+0x368>
  800ca4:	d0a75d17 	ldw	r2,-25228(gp)
  800ca8:	10800058 	cmpnei	r2,r2,1
  800cac:	1000a01e 	bne	r2,zero,800f30 <camera_tlc+0x368>
				if(uart != NULL){
  800cb0:	d0a75b17 	ldw	r2,-25236(gp)
  800cb4:	10001726 	beq	r2,zero,800d14 <camera_tlc+0x14c>
					fprintf(uart, "Vehicle left\r\n");
  800cb8:	d0a75b17 	ldw	r2,-25236(gp)
  800cbc:	100f883a 	mov	r7,r2
  800cc0:	01800384 	movi	r6,14
  800cc4:	01400044 	movi	r5,1
  800cc8:	01002074 	movhi	r4,129
  800ccc:	210a6a04 	addi	r4,r4,10664
  800cd0:	08020c80 	call	8020c8 <fwrite>
					fprintf(uart, "Vehicle time in intersection taken: %d.%d seconds\r\n\n",
  800cd4:	d4275b17 	ldw	r16,-25236(gp)
  800cd8:	d0a75417 	ldw	r2,-25264(gp)
  800cdc:	01400284 	movi	r5,10
  800ce0:	1009883a 	mov	r4,r2
  800ce4:	08011540 	call	801154 <__divsi3>
  800ce8:	1023883a 	mov	r17,r2
  800cec:	d0a75417 	ldw	r2,-25264(gp)
  800cf0:	01400284 	movi	r5,10
  800cf4:	1009883a 	mov	r4,r2
  800cf8:	08011d80 	call	8011d8 <__modsi3>
  800cfc:	100f883a 	mov	r7,r2
  800d00:	880d883a 	mov	r6,r17
  800d04:	01402074 	movhi	r5,129
  800d08:	294a6e04 	addi	r5,r5,10680
  800d0c:	8009883a 	mov	r4,r16
  800d10:	08018d40 	call	8018d4 <fprintf>
											timeCountCamera / 10, timeCountCamera % 10);
				}

				alt_alarm_stop(&timer1);
  800d14:	01002074 	movhi	r4,129
  800d18:	211a9004 	addi	r4,r4,27200
  800d1c:	080f3a00 	call	80f3a0 <alt_alarm_stop>
				timeCountCamera = 0;
  800d20:	d0275415 	stw	zero,-25264(gp)
				cam_0 = standby;
  800d24:	d0275115 	stw	zero,-25276(gp)
			}
			break;
  800d28:	00008106 	br	800f30 <camera_tlc+0x368>

		case RY:
			// Check that car has entered/exited

			//First if statement checks for recent change in car action.
			if(car_action == entered && previous_car_action != car_action){
  800d2c:	d0a75d17 	ldw	r2,-25228(gp)
  800d30:	1000171e 	bne	r2,zero,800d90 <camera_tlc+0x1c8>
  800d34:	d0e75f17 	ldw	r3,-25220(gp)
  800d38:	d0a75d17 	ldw	r2,-25228(gp)
  800d3c:	18801426 	beq	r3,r2,800d90 <camera_tlc+0x1c8>
				if(uart != NULL){
  800d40:	d0a75b17 	ldw	r2,-25236(gp)
  800d44:	10000726 	beq	r2,zero,800d64 <camera_tlc+0x19c>
					fprintf(uart, "Camera activated\r\n");
  800d48:	d0a75b17 	ldw	r2,-25236(gp)
  800d4c:	100f883a 	mov	r7,r2
  800d50:	01800484 	movi	r6,18
  800d54:	01400044 	movi	r5,1
  800d58:	01002074 	movhi	r4,129
  800d5c:	210a6504 	addi	r4,r4,10644
  800d60:	08020c80 	call	8020c8 <fwrite>
				}
				alt_alarm_start(&timer1, 100, camera_timer_isr, timerCameraContext);
  800d64:	d0a75517 	ldw	r2,-25260(gp)
  800d68:	100f883a 	mov	r7,r2
  800d6c:	01802034 	movhi	r6,128
  800d70:	3180eb04 	addi	r6,r6,940
  800d74:	01401904 	movi	r5,100
  800d78:	01002074 	movhi	r4,129
  800d7c:	211a9004 	addi	r4,r4,27200
  800d80:	080e6900 	call	80e690 <alt_alarm_start>
				cam_0 = monitoring;
  800d84:	00800044 	movi	r2,1
  800d88:	d0a75115 	stw	r2,-25276(gp)
				}
				alt_alarm_stop(&timer1);
				timeCountCamera = 0;
				cam_0 = standby;
			}
			break;
  800d8c:	00006a06 	br	800f38 <camera_tlc+0x370>
				}
				alt_alarm_start(&timer1, 100, camera_timer_isr, timerCameraContext);
				cam_0 = monitoring;

			//Check that the car has exited. Report time taken
			}else if(cam_0 != standby && car_action == exited){
  800d90:	d0a75117 	ldw	r2,-25276(gp)
  800d94:	10006826 	beq	r2,zero,800f38 <camera_tlc+0x370>
  800d98:	d0a75d17 	ldw	r2,-25228(gp)
  800d9c:	10800058 	cmpnei	r2,r2,1
  800da0:	1000651e 	bne	r2,zero,800f38 <camera_tlc+0x370>
				if(uart != NULL){
  800da4:	d0a75b17 	ldw	r2,-25236(gp)
  800da8:	10001726 	beq	r2,zero,800e08 <camera_tlc+0x240>
					fprintf(uart, "Vehicle left\r\n");
  800dac:	d0a75b17 	ldw	r2,-25236(gp)
  800db0:	100f883a 	mov	r7,r2
  800db4:	01800384 	movi	r6,14
  800db8:	01400044 	movi	r5,1
  800dbc:	01002074 	movhi	r4,129
  800dc0:	210a6a04 	addi	r4,r4,10664
  800dc4:	08020c80 	call	8020c8 <fwrite>
					fprintf(uart, "Vehicle time in intersection taken: %d.%d seconds\r\n\n",
  800dc8:	d4275b17 	ldw	r16,-25236(gp)
  800dcc:	d0a75417 	ldw	r2,-25264(gp)
  800dd0:	01400284 	movi	r5,10
  800dd4:	1009883a 	mov	r4,r2
  800dd8:	08011540 	call	801154 <__divsi3>
  800ddc:	1023883a 	mov	r17,r2
  800de0:	d0a75417 	ldw	r2,-25264(gp)
  800de4:	01400284 	movi	r5,10
  800de8:	1009883a 	mov	r4,r2
  800dec:	08011d80 	call	8011d8 <__modsi3>
  800df0:	100f883a 	mov	r7,r2
  800df4:	880d883a 	mov	r6,r17
  800df8:	01402074 	movhi	r5,129
  800dfc:	294a6e04 	addi	r5,r5,10680
  800e00:	8009883a 	mov	r4,r16
  800e04:	08018d40 	call	8018d4 <fprintf>
											timeCountCamera / 10, timeCountCamera % 10);
				}
				alt_alarm_stop(&timer1);
  800e08:	01002074 	movhi	r4,129
  800e0c:	211a9004 	addi	r4,r4,27200
  800e10:	080f3a00 	call	80f3a0 <alt_alarm_stop>
				timeCountCamera = 0;
  800e14:	d0275415 	stw	zero,-25264(gp)
				cam_0 = standby;
  800e18:	d0275115 	stw	zero,-25276(gp)
			}
			break;
  800e1c:	00004606 	br	800f38 <camera_tlc+0x370>
			 * Other states such as RG, GR and RR.
			 * Take picture immediately when car passes on button click.
			 */

			// Check for change in car action.
			if(previous_car_action != car_action){
  800e20:	d0e75f17 	ldw	r3,-25220(gp)
  800e24:	d0a75d17 	ldw	r2,-25228(gp)
  800e28:	18804526 	beq	r3,r2,800f40 <camera_tlc+0x378>

				//Check that the snapshot is not taken and changed to entered state.
				if(car_action == entered && cam_0 == standby){
  800e2c:	d0a75d17 	ldw	r2,-25228(gp)
  800e30:	10001d1e 	bne	r2,zero,800ea8 <camera_tlc+0x2e0>
  800e34:	d0a75117 	ldw	r2,-25276(gp)
  800e38:	10001b1e 	bne	r2,zero,800ea8 <camera_tlc+0x2e0>
					alt_alarm_start(&timer1, 100, camera_timer_isr, timerCameraContext);
  800e3c:	d0a75517 	ldw	r2,-25260(gp)
  800e40:	100f883a 	mov	r7,r2
  800e44:	01802034 	movhi	r6,128
  800e48:	3180eb04 	addi	r6,r6,940
  800e4c:	01401904 	movi	r5,100
  800e50:	01002074 	movhi	r4,129
  800e54:	211a9004 	addi	r4,r4,27200
  800e58:	080e6900 	call	80e690 <alt_alarm_start>
					if(uart != NULL){
  800e5c:	d0a75b17 	ldw	r2,-25236(gp)
  800e60:	10000e26 	beq	r2,zero,800e9c <camera_tlc+0x2d4>
						fprintf(uart, "Camera activated\r\n");
  800e64:	d0a75b17 	ldw	r2,-25236(gp)
  800e68:	100f883a 	mov	r7,r2
  800e6c:	01800484 	movi	r6,18
  800e70:	01400044 	movi	r5,1
  800e74:	01002074 	movhi	r4,129
  800e78:	210a6504 	addi	r4,r4,10644
  800e7c:	08020c80 	call	8020c8 <fwrite>
						fprintf(uart, "Snapshot Taken!\r\n");
  800e80:	d0a75b17 	ldw	r2,-25236(gp)
  800e84:	100f883a 	mov	r7,r2
  800e88:	01800444 	movi	r6,17
  800e8c:	01400044 	movi	r5,1
  800e90:	01002074 	movhi	r4,129
  800e94:	210a6004 	addi	r4,r4,10624
  800e98:	08020c80 	call	8020c8 <fwrite>
					}
					cam_0 = taken;
  800e9c:	00800084 	movi	r2,2
  800ea0:	d0a75115 	stw	r2,-25276(gp)
					timeCountCamera = 0;
					cam_0 = standby;
				}
			}

			break;
  800ea4:	00002606 	br	800f40 <camera_tlc+0x378>
						fprintf(uart, "Snapshot Taken!\r\n");
					}
					cam_0 = taken;

				//Anytime the vehicle exits
				}else if(car_action == exited){
  800ea8:	d0a75d17 	ldw	r2,-25228(gp)
  800eac:	10800058 	cmpnei	r2,r2,1
  800eb0:	1000231e 	bne	r2,zero,800f40 <camera_tlc+0x378>
					if(uart != NULL){
  800eb4:	d0a75b17 	ldw	r2,-25236(gp)
  800eb8:	10001726 	beq	r2,zero,800f18 <camera_tlc+0x350>
						fprintf(uart, "Vehicle left\r\n");
  800ebc:	d0a75b17 	ldw	r2,-25236(gp)
  800ec0:	100f883a 	mov	r7,r2
  800ec4:	01800384 	movi	r6,14
  800ec8:	01400044 	movi	r5,1
  800ecc:	01002074 	movhi	r4,129
  800ed0:	210a6a04 	addi	r4,r4,10664
  800ed4:	08020c80 	call	8020c8 <fwrite>
						fprintf(uart, "Vehicle time in intersection taken: %d.%d seconds\r\n\n",
  800ed8:	d4275b17 	ldw	r16,-25236(gp)
  800edc:	d0a75417 	ldw	r2,-25264(gp)
  800ee0:	01400284 	movi	r5,10
  800ee4:	1009883a 	mov	r4,r2
  800ee8:	08011540 	call	801154 <__divsi3>
  800eec:	1023883a 	mov	r17,r2
  800ef0:	d0a75417 	ldw	r2,-25264(gp)
  800ef4:	01400284 	movi	r5,10
  800ef8:	1009883a 	mov	r4,r2
  800efc:	08011d80 	call	8011d8 <__modsi3>
  800f00:	100f883a 	mov	r7,r2
  800f04:	880d883a 	mov	r6,r17
  800f08:	01402074 	movhi	r5,129
  800f0c:	294a6e04 	addi	r5,r5,10680
  800f10:	8009883a 	mov	r4,r16
  800f14:	08018d40 	call	8018d4 <fprintf>
												timeCountCamera / 10, timeCountCamera % 10);
					}
					alt_alarm_stop(&timer1);
  800f18:	01002074 	movhi	r4,129
  800f1c:	211a9004 	addi	r4,r4,27200
  800f20:	080f3a00 	call	80f3a0 <alt_alarm_stop>
					timeCountCamera = 0;
  800f24:	d0275415 	stw	zero,-25264(gp)
					cam_0 = standby;
  800f28:	d0275115 	stw	zero,-25276(gp)
				}
			}

			break;
  800f2c:	00000406 	br	800f40 <camera_tlc+0x378>

				alt_alarm_stop(&timer1);
				timeCountCamera = 0;
				cam_0 = standby;
			}
			break;
  800f30:	0001883a 	nop
  800f34:	00000306 	br	800f44 <camera_tlc+0x37c>
				}
				alt_alarm_stop(&timer1);
				timeCountCamera = 0;
				cam_0 = standby;
			}
			break;
  800f38:	0001883a 	nop
  800f3c:	00000106 	br	800f44 <camera_tlc+0x37c>
					timeCountCamera = 0;
					cam_0 = standby;
				}
			}

			break;
  800f40:	0001883a 	nop
	}
	previous_car_action = car_action;
  800f44:	d0a75d17 	ldw	r2,-25228(gp)
  800f48:	d0a75f15 	stw	r2,-25220(gp)
}
  800f4c:	0001883a 	nop
  800f50:	e6fffe04 	addi	sp,fp,-8
  800f54:	dfc00317 	ldw	ra,12(sp)
  800f58:	df000217 	ldw	fp,8(sp)
  800f5c:	dc400117 	ldw	r17,4(sp)
  800f60:	dc000017 	ldw	r16,0(sp)
  800f64:	dec00404 	addi	sp,sp,16
  800f68:	f800283a 	ret

00800f6c <main>:




int main() {
  800f6c:	defffe04 	addi	sp,sp,-8
  800f70:	dfc00115 	stw	ra,4(sp)
  800f74:	df000015 	stw	fp,0(sp)
  800f78:	d839883a 	mov	fp,sp
	// Initialise
	car_action = exited;
  800f7c:	00800044 	movi	r2,1
  800f80:	d0a75d15 	stw	r2,-25228(gp)
	previous_car_action = exited;
  800f84:	00800044 	movi	r2,1
  800f88:	d0a75f15 	stw	r2,-25220(gp)
	pedNS = idle;
  800f8c:	d0275315 	stw	zero,-25268(gp)
	pedWE = idle;
  800f90:	d0275c15 	stw	zero,-25232(gp)
	traffic = RR;
  800f94:	d0275815 	stw	zero,-25248(gp)
	next_traffic = NS;
  800f98:	d0275715 	stw	zero,-25252(gp)
	cam_0 = standby;
  800f9c:	d0275115 	stw	zero,-25276(gp)

	/*
	 * Make sure only the 2 switches on the right will change the mode of the simulation.
	 * +1 will make sure mode is {1,2,3,4}.
	 */
	mode = (IORD_ALTERA_AVALON_PIO_DATA(SWITCHES_BASE) % 4) + 1;
  800fa0:	00804074 	movhi	r2,257
  800fa4:	10842804 	addi	r2,r2,4256
  800fa8:	10c00037 	ldwio	r3,0(r2)
  800fac:	00a00034 	movhi	r2,32768
  800fb0:	108000c4 	addi	r2,r2,3
  800fb4:	1884703a 	and	r2,r3,r2
  800fb8:	1000040e 	bge	r2,zero,800fcc <main+0x60>
  800fbc:	10bfffc4 	addi	r2,r2,-1
  800fc0:	00ffff04 	movi	r3,-4
  800fc4:	10c4b03a 	or	r2,r2,r3
  800fc8:	10800044 	addi	r2,r2,1
  800fcc:	10800044 	addi	r2,r2,1
  800fd0:	d0a75615 	stw	r2,-25256(gp)

	lcd = fopen(LCD_NAME, "w");
  800fd4:	01402074 	movhi	r5,129
  800fd8:	294a7c04 	addi	r5,r5,10736
  800fdc:	01002074 	movhi	r4,129
  800fe0:	210a7d04 	addi	r4,r4,10740
  800fe4:	08018940 	call	801894 <fopen>
  800fe8:	d0a75215 	stw	r2,-25272(gp)
	uart = fopen(UART_NAME, "r+");
  800fec:	01402074 	movhi	r5,129
  800ff0:	294a8004 	addi	r5,r5,10752
  800ff4:	01002074 	movhi	r4,129
  800ff8:	210a8104 	addi	r4,r4,10756
  800ffc:	08018940 	call	801894 <fopen>
  801000:	d0a75b15 	stw	r2,-25236(gp)

	/*
	 * Buttons Interrupt Setup
	 */
	context_going_to_be_passed = (void*) &buttonValue;
  801004:	d0a74f04 	addi	r2,gp,-25284
  801008:	d0a76015 	stw	r2,-25216(gp)
	// clears the edge capture register
	IOWR_ALTERA_AVALON_PIO_EDGE_CAP(KEYS_BASE, 0);
  80100c:	0007883a 	mov	r3,zero
  801010:	00804074 	movhi	r2,257
  801014:	10842704 	addi	r2,r2,4252
  801018:	10c00035 	stwio	r3,0(r2)
	// enable interrupts for all buttons
	IOWR_ALTERA_AVALON_PIO_IRQ_MASK(KEYS_BASE, 0x7);
  80101c:	00c001c4 	movi	r3,7
  801020:	00804074 	movhi	r2,257
  801024:	10842604 	addi	r2,r2,4248
  801028:	10c00035 	stwio	r3,0(r2)
	// register the ISR
	alt_irq_register(KEYS_IRQ,context_going_to_be_passed,init_buttons_pio);
  80102c:	d0a76017 	ldw	r2,-25216(gp)
  801030:	01802034 	movhi	r6,128
  801034:	3180a404 	addi	r6,r6,656
  801038:	100b883a 	mov	r5,r2
  80103c:	0009883a 	mov	r4,zero
  801040:	080e9e00 	call	80e9e0 <alt_irq_register>

	/*
	 * Timer interrupt Setup
	 */
	// start the tlc timer, with timeout of 100 milli-seconds
	timeCountMain = 0;
  801044:	d0275915 	stw	zero,-25244(gp)
	timerContext = (void*) &timeCountMain;
  801048:	d0a75904 	addi	r2,gp,-25244
  80104c:	d0a75e15 	stw	r2,-25224(gp)
	alt_alarm_start(&timer, 100, tlc_timer_isr, timerContext);
  801050:	d0a75e17 	ldw	r2,-25224(gp)
  801054:	100f883a 	mov	r7,r2
  801058:	01802034 	movhi	r6,128
  80105c:	3180db04 	addi	r6,r6,876
  801060:	01401904 	movi	r5,100
  801064:	01002074 	movhi	r4,129
  801068:	211a8a04 	addi	r4,r4,27176
  80106c:	080e6900 	call	80e690 <alt_alarm_start>

	timeCountCamera = 0;
  801070:	d0275415 	stw	zero,-25264(gp)
	timerCameraContext = (void*) &timeCountCamera;
  801074:	d0a75404 	addi	r2,gp,-25264
  801078:	d0a75515 	stw	r2,-25260(gp)
		 * This function gets the switches setup and prints the value of mode on LCD.
		 * LCD re-print only happens when the mode has changed.
		 * The mode can only change in the condition that traffic state is on RR.
		 * Reset some settings to initial when switches changed.
		 */
		if(traffic == RR){
  80107c:	d0a75817 	ldw	r2,-25248(gp)
  801080:	1000181e 	bne	r2,zero,8010e4 <main+0x178>
			mode = (IORD_ALTERA_AVALON_PIO_DATA(SWITCHES_BASE) % 4) + 1;
  801084:	00804074 	movhi	r2,257
  801088:	10842804 	addi	r2,r2,4256
  80108c:	10c00037 	ldwio	r3,0(r2)
  801090:	00a00034 	movhi	r2,32768
  801094:	108000c4 	addi	r2,r2,3
  801098:	1884703a 	and	r2,r3,r2
  80109c:	1000040e 	bge	r2,zero,8010b0 <main+0x144>
  8010a0:	10bfffc4 	addi	r2,r2,-1
  8010a4:	00ffff04 	movi	r3,-4
  8010a8:	10c4b03a 	or	r2,r2,r3
  8010ac:	10800044 	addi	r2,r2,1
  8010b0:	10800044 	addi	r2,r2,1
  8010b4:	d0a75615 	stw	r2,-25256(gp)
			if(mode != previousMode){
  8010b8:	d0e75617 	ldw	r3,-25256(gp)
  8010bc:	d0a75a17 	ldw	r2,-25240(gp)
  8010c0:	18800626 	beq	r3,r2,8010dc <main+0x170>
				lcd_set_mode(mode);
  8010c4:	d0a75617 	ldw	r2,-25256(gp)
  8010c8:	1009883a 	mov	r4,r2
  8010cc:	08003ec0 	call	8003ec <lcd_set_mode>
				car_action = exited;
  8010d0:	00800044 	movi	r2,1
  8010d4:	d0a75d15 	stw	r2,-25228(gp)
				settings_made = 0;
  8010d8:	d0275015 	stw	zero,-25280(gp)
			}
			previousMode = mode;
  8010dc:	d0a75617 	ldw	r2,-25256(gp)
  8010e0:	d0a75a15 	stw	r2,-25240(gp)

		/*
		 * Different modes
		 */
		// If mode is not 3 because modes 1, 2 and 4 uses simple_tlc
		if(mode != 3){
  8010e4:	d0a75617 	ldw	r2,-25256(gp)
  8010e8:	108000e0 	cmpeqi	r2,r2,3
  8010ec:	10000a1e 	bne	r2,zero,801118 <main+0x1ac>
			simple_tlc();
  8010f0:	08005e40 	call	8005e4 <simple_tlc>

			//Only mode one does not utilise pedestrian crossing
			if(mode == 2){
  8010f4:	d0a75617 	ldw	r2,-25256(gp)
  8010f8:	10800098 	cmpnei	r2,r2,2
  8010fc:	1000011e 	bne	r2,zero,801104 <main+0x198>
				pedestrian_tlc();
  801100:	08008240 	call	800824 <pedestrian_tlc>
			}
			if(mode == 4){
  801104:	d0a75617 	ldw	r2,-25256(gp)
  801108:	10800118 	cmpnei	r2,r2,4
  80110c:	10000c1e 	bne	r2,zero,801140 <main+0x1d4>
				camera_tlc();
  801110:	0800bc80 	call	800bc8 <camera_tlc>
  801114:	00000a06 	br	801140 <main+0x1d4>
			}
		}else{
			if(traffic == RR && IORD_ALTERA_AVALON_PIO_DATA(SWITCHES_BASE) == 6 ){
  801118:	d0a75817 	ldw	r2,-25248(gp)
  80111c:	1000071e 	bne	r2,zero,80113c <main+0x1d0>
  801120:	00804074 	movhi	r2,257
  801124:	10842804 	addi	r2,r2,4256
  801128:	10800037 	ldwio	r2,0(r2)
  80112c:	10800198 	cmpnei	r2,r2,6
  801130:	1000021e 	bne	r2,zero,80113c <main+0x1d0>
				timeout_data_handler();
  801134:	08004580 	call	800458 <timeout_data_handler>
  801138:	00000106 	br	801140 <main+0x1d4>
			}else{
				configurable_tlc();
  80113c:	080091c0 	call	80091c <configurable_tlc>
			}
		}


		//Turns on LEDs based on TLC
		IOWR_ALTERA_AVALON_PIO_DATA(LEDS_GREEN_BASE, LEDs);
  801140:	d0e74e17 	ldw	r3,-25288(gp)
  801144:	00804074 	movhi	r2,257
  801148:	10842004 	addi	r2,r2,4224
  80114c:	10c00035 	stwio	r3,0(r2)

	}
  801150:	003fca06 	br	80107c <__alt_mem_onchip_mem+0xff7f907c>

00801154 <__divsi3>:
  801154:	20001b16 	blt	r4,zero,8011c4 <__divsi3+0x70>
  801158:	000f883a 	mov	r7,zero
  80115c:	28001616 	blt	r5,zero,8011b8 <__divsi3+0x64>
  801160:	200d883a 	mov	r6,r4
  801164:	29001a2e 	bgeu	r5,r4,8011d0 <__divsi3+0x7c>
  801168:	00800804 	movi	r2,32
  80116c:	00c00044 	movi	r3,1
  801170:	00000106 	br	801178 <__divsi3+0x24>
  801174:	10000d26 	beq	r2,zero,8011ac <__divsi3+0x58>
  801178:	294b883a 	add	r5,r5,r5
  80117c:	10bfffc4 	addi	r2,r2,-1
  801180:	18c7883a 	add	r3,r3,r3
  801184:	293ffb36 	bltu	r5,r4,801174 <__alt_mem_onchip_mem+0xff7f9174>
  801188:	0005883a 	mov	r2,zero
  80118c:	18000726 	beq	r3,zero,8011ac <__divsi3+0x58>
  801190:	0005883a 	mov	r2,zero
  801194:	31400236 	bltu	r6,r5,8011a0 <__divsi3+0x4c>
  801198:	314dc83a 	sub	r6,r6,r5
  80119c:	10c4b03a 	or	r2,r2,r3
  8011a0:	1806d07a 	srli	r3,r3,1
  8011a4:	280ad07a 	srli	r5,r5,1
  8011a8:	183ffa1e 	bne	r3,zero,801194 <__alt_mem_onchip_mem+0xff7f9194>
  8011ac:	38000126 	beq	r7,zero,8011b4 <__divsi3+0x60>
  8011b0:	0085c83a 	sub	r2,zero,r2
  8011b4:	f800283a 	ret
  8011b8:	014bc83a 	sub	r5,zero,r5
  8011bc:	39c0005c 	xori	r7,r7,1
  8011c0:	003fe706 	br	801160 <__alt_mem_onchip_mem+0xff7f9160>
  8011c4:	0109c83a 	sub	r4,zero,r4
  8011c8:	01c00044 	movi	r7,1
  8011cc:	003fe306 	br	80115c <__alt_mem_onchip_mem+0xff7f915c>
  8011d0:	00c00044 	movi	r3,1
  8011d4:	003fee06 	br	801190 <__alt_mem_onchip_mem+0xff7f9190>

008011d8 <__modsi3>:
  8011d8:	20001716 	blt	r4,zero,801238 <__modsi3+0x60>
  8011dc:	000f883a 	mov	r7,zero
  8011e0:	2005883a 	mov	r2,r4
  8011e4:	28001216 	blt	r5,zero,801230 <__modsi3+0x58>
  8011e8:	2900162e 	bgeu	r5,r4,801244 <__modsi3+0x6c>
  8011ec:	01800804 	movi	r6,32
  8011f0:	00c00044 	movi	r3,1
  8011f4:	00000106 	br	8011fc <__modsi3+0x24>
  8011f8:	30000a26 	beq	r6,zero,801224 <__modsi3+0x4c>
  8011fc:	294b883a 	add	r5,r5,r5
  801200:	31bfffc4 	addi	r6,r6,-1
  801204:	18c7883a 	add	r3,r3,r3
  801208:	293ffb36 	bltu	r5,r4,8011f8 <__alt_mem_onchip_mem+0xff7f91f8>
  80120c:	18000526 	beq	r3,zero,801224 <__modsi3+0x4c>
  801210:	1806d07a 	srli	r3,r3,1
  801214:	11400136 	bltu	r2,r5,80121c <__modsi3+0x44>
  801218:	1145c83a 	sub	r2,r2,r5
  80121c:	280ad07a 	srli	r5,r5,1
  801220:	183ffb1e 	bne	r3,zero,801210 <__alt_mem_onchip_mem+0xff7f9210>
  801224:	38000126 	beq	r7,zero,80122c <__modsi3+0x54>
  801228:	0085c83a 	sub	r2,zero,r2
  80122c:	f800283a 	ret
  801230:	014bc83a 	sub	r5,zero,r5
  801234:	003fec06 	br	8011e8 <__alt_mem_onchip_mem+0xff7f91e8>
  801238:	0109c83a 	sub	r4,zero,r4
  80123c:	01c00044 	movi	r7,1
  801240:	003fe706 	br	8011e0 <__alt_mem_onchip_mem+0xff7f91e0>
  801244:	00c00044 	movi	r3,1
  801248:	003ff106 	br	801210 <__alt_mem_onchip_mem+0xff7f9210>

0080124c <__udivsi3>:
  80124c:	200d883a 	mov	r6,r4
  801250:	2900152e 	bgeu	r5,r4,8012a8 <__udivsi3+0x5c>
  801254:	28001416 	blt	r5,zero,8012a8 <__udivsi3+0x5c>
  801258:	00800804 	movi	r2,32
  80125c:	00c00044 	movi	r3,1
  801260:	00000206 	br	80126c <__udivsi3+0x20>
  801264:	10000e26 	beq	r2,zero,8012a0 <__udivsi3+0x54>
  801268:	28000516 	blt	r5,zero,801280 <__udivsi3+0x34>
  80126c:	294b883a 	add	r5,r5,r5
  801270:	10bfffc4 	addi	r2,r2,-1
  801274:	18c7883a 	add	r3,r3,r3
  801278:	293ffa36 	bltu	r5,r4,801264 <__alt_mem_onchip_mem+0xff7f9264>
  80127c:	18000826 	beq	r3,zero,8012a0 <__udivsi3+0x54>
  801280:	0005883a 	mov	r2,zero
  801284:	31400236 	bltu	r6,r5,801290 <__udivsi3+0x44>
  801288:	314dc83a 	sub	r6,r6,r5
  80128c:	10c4b03a 	or	r2,r2,r3
  801290:	1806d07a 	srli	r3,r3,1
  801294:	280ad07a 	srli	r5,r5,1
  801298:	183ffa1e 	bne	r3,zero,801284 <__alt_mem_onchip_mem+0xff7f9284>
  80129c:	f800283a 	ret
  8012a0:	0005883a 	mov	r2,zero
  8012a4:	f800283a 	ret
  8012a8:	00c00044 	movi	r3,1
  8012ac:	003ff406 	br	801280 <__alt_mem_onchip_mem+0xff7f9280>

008012b0 <__umodsi3>:
  8012b0:	2005883a 	mov	r2,r4
  8012b4:	2900122e 	bgeu	r5,r4,801300 <__umodsi3+0x50>
  8012b8:	28001116 	blt	r5,zero,801300 <__umodsi3+0x50>
  8012bc:	01800804 	movi	r6,32
  8012c0:	00c00044 	movi	r3,1
  8012c4:	00000206 	br	8012d0 <__umodsi3+0x20>
  8012c8:	30000c26 	beq	r6,zero,8012fc <__umodsi3+0x4c>
  8012cc:	28000516 	blt	r5,zero,8012e4 <__umodsi3+0x34>
  8012d0:	294b883a 	add	r5,r5,r5
  8012d4:	31bfffc4 	addi	r6,r6,-1
  8012d8:	18c7883a 	add	r3,r3,r3
  8012dc:	293ffa36 	bltu	r5,r4,8012c8 <__alt_mem_onchip_mem+0xff7f92c8>
  8012e0:	18000626 	beq	r3,zero,8012fc <__umodsi3+0x4c>
  8012e4:	1806d07a 	srli	r3,r3,1
  8012e8:	11400136 	bltu	r2,r5,8012f0 <__umodsi3+0x40>
  8012ec:	1145c83a 	sub	r2,r2,r5
  8012f0:	280ad07a 	srli	r5,r5,1
  8012f4:	183ffb1e 	bne	r3,zero,8012e4 <__alt_mem_onchip_mem+0xff7f92e4>
  8012f8:	f800283a 	ret
  8012fc:	f800283a 	ret
  801300:	00c00044 	movi	r3,1
  801304:	003ff706 	br	8012e4 <__alt_mem_onchip_mem+0xff7f92e4>

00801308 <_fgetc_r>:
  801308:	defffd04 	addi	sp,sp,-12
  80130c:	dc000115 	stw	r16,4(sp)
  801310:	dfc00215 	stw	ra,8(sp)
  801314:	2021883a 	mov	r16,r4
  801318:	20000226 	beq	r4,zero,801324 <_fgetc_r+0x1c>
  80131c:	20800e17 	ldw	r2,56(r4)
  801320:	10000c26 	beq	r2,zero,801354 <_fgetc_r+0x4c>
  801324:	28800117 	ldw	r2,4(r5)
  801328:	10bfffc4 	addi	r2,r2,-1
  80132c:	28800115 	stw	r2,4(r5)
  801330:	10000c16 	blt	r2,zero,801364 <_fgetc_r+0x5c>
  801334:	28800017 	ldw	r2,0(r5)
  801338:	10c00044 	addi	r3,r2,1
  80133c:	28c00015 	stw	r3,0(r5)
  801340:	10800003 	ldbu	r2,0(r2)
  801344:	dfc00217 	ldw	ra,8(sp)
  801348:	dc000117 	ldw	r16,4(sp)
  80134c:	dec00304 	addi	sp,sp,12
  801350:	f800283a 	ret
  801354:	d9400015 	stw	r5,0(sp)
  801358:	08017500 	call	801750 <__sinit>
  80135c:	d9400017 	ldw	r5,0(sp)
  801360:	003ff006 	br	801324 <__alt_mem_onchip_mem+0xff7f9324>
  801364:	8009883a 	mov	r4,r16
  801368:	dfc00217 	ldw	ra,8(sp)
  80136c:	dc000117 	ldw	r16,4(sp)
  801370:	dec00304 	addi	sp,sp,12
  801374:	0802fa41 	jmpi	802fa4 <__srget_r>

00801378 <fgetc>:
  801378:	00802074 	movhi	r2,129
  80137c:	defffd04 	addi	sp,sp,-12
  801380:	10931204 	addi	r2,r2,19528
  801384:	dc400115 	stw	r17,4(sp)
  801388:	14400017 	ldw	r17,0(r2)
  80138c:	dc000015 	stw	r16,0(sp)
  801390:	dfc00215 	stw	ra,8(sp)
  801394:	2021883a 	mov	r16,r4
  801398:	88000226 	beq	r17,zero,8013a4 <fgetc+0x2c>
  80139c:	88800e17 	ldw	r2,56(r17)
  8013a0:	10000d26 	beq	r2,zero,8013d8 <fgetc+0x60>
  8013a4:	80800117 	ldw	r2,4(r16)
  8013a8:	10bfffc4 	addi	r2,r2,-1
  8013ac:	80800115 	stw	r2,4(r16)
  8013b0:	10000c16 	blt	r2,zero,8013e4 <fgetc+0x6c>
  8013b4:	80800017 	ldw	r2,0(r16)
  8013b8:	10c00044 	addi	r3,r2,1
  8013bc:	80c00015 	stw	r3,0(r16)
  8013c0:	10800003 	ldbu	r2,0(r2)
  8013c4:	dfc00217 	ldw	ra,8(sp)
  8013c8:	dc400117 	ldw	r17,4(sp)
  8013cc:	dc000017 	ldw	r16,0(sp)
  8013d0:	dec00304 	addi	sp,sp,12
  8013d4:	f800283a 	ret
  8013d8:	8809883a 	mov	r4,r17
  8013dc:	08017500 	call	801750 <__sinit>
  8013e0:	003ff006 	br	8013a4 <__alt_mem_onchip_mem+0xff7f93a4>
  8013e4:	800b883a 	mov	r5,r16
  8013e8:	8809883a 	mov	r4,r17
  8013ec:	dfc00217 	ldw	ra,8(sp)
  8013f0:	dc400117 	ldw	r17,4(sp)
  8013f4:	dc000017 	ldw	r16,0(sp)
  8013f8:	dec00304 	addi	sp,sp,12
  8013fc:	0802fa41 	jmpi	802fa4 <__srget_r>

00801400 <__fp_unlock>:
  801400:	0005883a 	mov	r2,zero
  801404:	f800283a 	ret

00801408 <_cleanup_r>:
  801408:	01402034 	movhi	r5,128
  80140c:	295c1d04 	addi	r5,r5,28788
  801410:	0801f381 	jmpi	801f38 <_fwalk_reent>

00801414 <__sinit.part.1>:
  801414:	defff704 	addi	sp,sp,-36
  801418:	00c02034 	movhi	r3,128
  80141c:	dfc00815 	stw	ra,32(sp)
  801420:	ddc00715 	stw	r23,28(sp)
  801424:	dd800615 	stw	r22,24(sp)
  801428:	dd400515 	stw	r21,20(sp)
  80142c:	dd000415 	stw	r20,16(sp)
  801430:	dcc00315 	stw	r19,12(sp)
  801434:	dc800215 	stw	r18,8(sp)
  801438:	dc400115 	stw	r17,4(sp)
  80143c:	dc000015 	stw	r16,0(sp)
  801440:	18c50204 	addi	r3,r3,5128
  801444:	24000117 	ldw	r16,4(r4)
  801448:	20c00f15 	stw	r3,60(r4)
  80144c:	2080bb04 	addi	r2,r4,748
  801450:	00c000c4 	movi	r3,3
  801454:	20c0b915 	stw	r3,740(r4)
  801458:	2080ba15 	stw	r2,744(r4)
  80145c:	2000b815 	stw	zero,736(r4)
  801460:	05c00204 	movi	r23,8
  801464:	00800104 	movi	r2,4
  801468:	2025883a 	mov	r18,r4
  80146c:	b80d883a 	mov	r6,r23
  801470:	81001704 	addi	r4,r16,92
  801474:	000b883a 	mov	r5,zero
  801478:	80000015 	stw	zero,0(r16)
  80147c:	80000115 	stw	zero,4(r16)
  801480:	80000215 	stw	zero,8(r16)
  801484:	8080030d 	sth	r2,12(r16)
  801488:	80001915 	stw	zero,100(r16)
  80148c:	8000038d 	sth	zero,14(r16)
  801490:	80000415 	stw	zero,16(r16)
  801494:	80000515 	stw	zero,20(r16)
  801498:	80000615 	stw	zero,24(r16)
  80149c:	0802ac40 	call	802ac4 <memset>
  8014a0:	05802034 	movhi	r22,128
  8014a4:	94400217 	ldw	r17,8(r18)
  8014a8:	05402034 	movhi	r21,128
  8014ac:	05002034 	movhi	r20,128
  8014b0:	04c02034 	movhi	r19,128
  8014b4:	b58c2004 	addi	r22,r22,12416
  8014b8:	ad4c3704 	addi	r21,r21,12508
  8014bc:	a50c5604 	addi	r20,r20,12632
  8014c0:	9ccc6d04 	addi	r19,r19,12724
  8014c4:	85800815 	stw	r22,32(r16)
  8014c8:	85400915 	stw	r21,36(r16)
  8014cc:	85000a15 	stw	r20,40(r16)
  8014d0:	84c00b15 	stw	r19,44(r16)
  8014d4:	84000715 	stw	r16,28(r16)
  8014d8:	00800284 	movi	r2,10
  8014dc:	8880030d 	sth	r2,12(r17)
  8014e0:	00800044 	movi	r2,1
  8014e4:	b80d883a 	mov	r6,r23
  8014e8:	89001704 	addi	r4,r17,92
  8014ec:	000b883a 	mov	r5,zero
  8014f0:	88000015 	stw	zero,0(r17)
  8014f4:	88000115 	stw	zero,4(r17)
  8014f8:	88000215 	stw	zero,8(r17)
  8014fc:	88001915 	stw	zero,100(r17)
  801500:	8880038d 	sth	r2,14(r17)
  801504:	88000415 	stw	zero,16(r17)
  801508:	88000515 	stw	zero,20(r17)
  80150c:	88000615 	stw	zero,24(r17)
  801510:	0802ac40 	call	802ac4 <memset>
  801514:	94000317 	ldw	r16,12(r18)
  801518:	00800484 	movi	r2,18
  80151c:	8c400715 	stw	r17,28(r17)
  801520:	8d800815 	stw	r22,32(r17)
  801524:	8d400915 	stw	r21,36(r17)
  801528:	8d000a15 	stw	r20,40(r17)
  80152c:	8cc00b15 	stw	r19,44(r17)
  801530:	8080030d 	sth	r2,12(r16)
  801534:	00800084 	movi	r2,2
  801538:	80000015 	stw	zero,0(r16)
  80153c:	80000115 	stw	zero,4(r16)
  801540:	80000215 	stw	zero,8(r16)
  801544:	80001915 	stw	zero,100(r16)
  801548:	8080038d 	sth	r2,14(r16)
  80154c:	80000415 	stw	zero,16(r16)
  801550:	80000515 	stw	zero,20(r16)
  801554:	80000615 	stw	zero,24(r16)
  801558:	b80d883a 	mov	r6,r23
  80155c:	000b883a 	mov	r5,zero
  801560:	81001704 	addi	r4,r16,92
  801564:	0802ac40 	call	802ac4 <memset>
  801568:	00800044 	movi	r2,1
  80156c:	84000715 	stw	r16,28(r16)
  801570:	85800815 	stw	r22,32(r16)
  801574:	85400915 	stw	r21,36(r16)
  801578:	85000a15 	stw	r20,40(r16)
  80157c:	84c00b15 	stw	r19,44(r16)
  801580:	90800e15 	stw	r2,56(r18)
  801584:	dfc00817 	ldw	ra,32(sp)
  801588:	ddc00717 	ldw	r23,28(sp)
  80158c:	dd800617 	ldw	r22,24(sp)
  801590:	dd400517 	ldw	r21,20(sp)
  801594:	dd000417 	ldw	r20,16(sp)
  801598:	dcc00317 	ldw	r19,12(sp)
  80159c:	dc800217 	ldw	r18,8(sp)
  8015a0:	dc400117 	ldw	r17,4(sp)
  8015a4:	dc000017 	ldw	r16,0(sp)
  8015a8:	dec00904 	addi	sp,sp,36
  8015ac:	f800283a 	ret

008015b0 <__fp_lock>:
  8015b0:	0005883a 	mov	r2,zero
  8015b4:	f800283a 	ret

008015b8 <__sfmoreglue>:
  8015b8:	defffc04 	addi	sp,sp,-16
  8015bc:	dc400115 	stw	r17,4(sp)
  8015c0:	2c7fffc4 	addi	r17,r5,-1
  8015c4:	8c401a24 	muli	r17,r17,104
  8015c8:	dc800215 	stw	r18,8(sp)
  8015cc:	2825883a 	mov	r18,r5
  8015d0:	89401d04 	addi	r5,r17,116
  8015d4:	dc000015 	stw	r16,0(sp)
  8015d8:	dfc00315 	stw	ra,12(sp)
  8015dc:	08022b80 	call	8022b8 <_malloc_r>
  8015e0:	1021883a 	mov	r16,r2
  8015e4:	10000726 	beq	r2,zero,801604 <__sfmoreglue+0x4c>
  8015e8:	11000304 	addi	r4,r2,12
  8015ec:	10000015 	stw	zero,0(r2)
  8015f0:	14800115 	stw	r18,4(r2)
  8015f4:	11000215 	stw	r4,8(r2)
  8015f8:	89801a04 	addi	r6,r17,104
  8015fc:	000b883a 	mov	r5,zero
  801600:	0802ac40 	call	802ac4 <memset>
  801604:	8005883a 	mov	r2,r16
  801608:	dfc00317 	ldw	ra,12(sp)
  80160c:	dc800217 	ldw	r18,8(sp)
  801610:	dc400117 	ldw	r17,4(sp)
  801614:	dc000017 	ldw	r16,0(sp)
  801618:	dec00404 	addi	sp,sp,16
  80161c:	f800283a 	ret

00801620 <__sfp>:
  801620:	defffb04 	addi	sp,sp,-20
  801624:	dc000015 	stw	r16,0(sp)
  801628:	04002074 	movhi	r16,129
  80162c:	84131104 	addi	r16,r16,19524
  801630:	dcc00315 	stw	r19,12(sp)
  801634:	2027883a 	mov	r19,r4
  801638:	81000017 	ldw	r4,0(r16)
  80163c:	dfc00415 	stw	ra,16(sp)
  801640:	dc800215 	stw	r18,8(sp)
  801644:	20800e17 	ldw	r2,56(r4)
  801648:	dc400115 	stw	r17,4(sp)
  80164c:	1000021e 	bne	r2,zero,801658 <__sfp+0x38>
  801650:	08014140 	call	801414 <__sinit.part.1>
  801654:	81000017 	ldw	r4,0(r16)
  801658:	2480b804 	addi	r18,r4,736
  80165c:	047fffc4 	movi	r17,-1
  801660:	91000117 	ldw	r4,4(r18)
  801664:	94000217 	ldw	r16,8(r18)
  801668:	213fffc4 	addi	r4,r4,-1
  80166c:	20000a16 	blt	r4,zero,801698 <__sfp+0x78>
  801670:	8080030f 	ldh	r2,12(r16)
  801674:	10000c26 	beq	r2,zero,8016a8 <__sfp+0x88>
  801678:	80c01d04 	addi	r3,r16,116
  80167c:	00000206 	br	801688 <__sfp+0x68>
  801680:	18bfe60f 	ldh	r2,-104(r3)
  801684:	10000826 	beq	r2,zero,8016a8 <__sfp+0x88>
  801688:	213fffc4 	addi	r4,r4,-1
  80168c:	1c3ffd04 	addi	r16,r3,-12
  801690:	18c01a04 	addi	r3,r3,104
  801694:	247ffa1e 	bne	r4,r17,801680 <__alt_mem_onchip_mem+0xff7f9680>
  801698:	90800017 	ldw	r2,0(r18)
  80169c:	10001d26 	beq	r2,zero,801714 <__sfp+0xf4>
  8016a0:	1025883a 	mov	r18,r2
  8016a4:	003fee06 	br	801660 <__alt_mem_onchip_mem+0xff7f9660>
  8016a8:	00bfffc4 	movi	r2,-1
  8016ac:	8080038d 	sth	r2,14(r16)
  8016b0:	00800044 	movi	r2,1
  8016b4:	8080030d 	sth	r2,12(r16)
  8016b8:	80001915 	stw	zero,100(r16)
  8016bc:	80000015 	stw	zero,0(r16)
  8016c0:	80000215 	stw	zero,8(r16)
  8016c4:	80000115 	stw	zero,4(r16)
  8016c8:	80000415 	stw	zero,16(r16)
  8016cc:	80000515 	stw	zero,20(r16)
  8016d0:	80000615 	stw	zero,24(r16)
  8016d4:	01800204 	movi	r6,8
  8016d8:	000b883a 	mov	r5,zero
  8016dc:	81001704 	addi	r4,r16,92
  8016e0:	0802ac40 	call	802ac4 <memset>
  8016e4:	8005883a 	mov	r2,r16
  8016e8:	80000c15 	stw	zero,48(r16)
  8016ec:	80000d15 	stw	zero,52(r16)
  8016f0:	80001115 	stw	zero,68(r16)
  8016f4:	80001215 	stw	zero,72(r16)
  8016f8:	dfc00417 	ldw	ra,16(sp)
  8016fc:	dcc00317 	ldw	r19,12(sp)
  801700:	dc800217 	ldw	r18,8(sp)
  801704:	dc400117 	ldw	r17,4(sp)
  801708:	dc000017 	ldw	r16,0(sp)
  80170c:	dec00504 	addi	sp,sp,20
  801710:	f800283a 	ret
  801714:	01400104 	movi	r5,4
  801718:	9809883a 	mov	r4,r19
  80171c:	08015b80 	call	8015b8 <__sfmoreglue>
  801720:	90800015 	stw	r2,0(r18)
  801724:	103fde1e 	bne	r2,zero,8016a0 <__alt_mem_onchip_mem+0xff7f96a0>
  801728:	00800304 	movi	r2,12
  80172c:	98800015 	stw	r2,0(r19)
  801730:	0005883a 	mov	r2,zero
  801734:	003ff006 	br	8016f8 <__alt_mem_onchip_mem+0xff7f96f8>

00801738 <_cleanup>:
  801738:	00802074 	movhi	r2,129
  80173c:	10931104 	addi	r2,r2,19524
  801740:	11000017 	ldw	r4,0(r2)
  801744:	01402034 	movhi	r5,128
  801748:	295c1d04 	addi	r5,r5,28788
  80174c:	0801f381 	jmpi	801f38 <_fwalk_reent>

00801750 <__sinit>:
  801750:	20800e17 	ldw	r2,56(r4)
  801754:	10000126 	beq	r2,zero,80175c <__sinit+0xc>
  801758:	f800283a 	ret
  80175c:	08014141 	jmpi	801414 <__sinit.part.1>

00801760 <__sfp_lock_acquire>:
  801760:	f800283a 	ret

00801764 <__sfp_lock_release>:
  801764:	f800283a 	ret

00801768 <__sinit_lock_acquire>:
  801768:	f800283a 	ret

0080176c <__sinit_lock_release>:
  80176c:	f800283a 	ret

00801770 <__fp_lock_all>:
  801770:	00802074 	movhi	r2,129
  801774:	10931204 	addi	r2,r2,19528
  801778:	11000017 	ldw	r4,0(r2)
  80177c:	01402034 	movhi	r5,128
  801780:	29456c04 	addi	r5,r5,5552
  801784:	0801e741 	jmpi	801e74 <_fwalk>

00801788 <__fp_unlock_all>:
  801788:	00802074 	movhi	r2,129
  80178c:	10931204 	addi	r2,r2,19528
  801790:	11000017 	ldw	r4,0(r2)
  801794:	01402034 	movhi	r5,128
  801798:	29450004 	addi	r5,r5,5120
  80179c:	0801e741 	jmpi	801e74 <_fwalk>

008017a0 <_fopen_r>:
  8017a0:	defffa04 	addi	sp,sp,-24
  8017a4:	3005883a 	mov	r2,r6
  8017a8:	dcc00415 	stw	r19,16(sp)
  8017ac:	d80d883a 	mov	r6,sp
  8017b0:	2827883a 	mov	r19,r5
  8017b4:	100b883a 	mov	r5,r2
  8017b8:	dc800315 	stw	r18,12(sp)
  8017bc:	dfc00515 	stw	ra,20(sp)
  8017c0:	dc400215 	stw	r17,8(sp)
  8017c4:	dc000115 	stw	r16,4(sp)
  8017c8:	2025883a 	mov	r18,r4
  8017cc:	08074200 	call	807420 <__sflags>
  8017d0:	10002726 	beq	r2,zero,801870 <_fopen_r+0xd0>
  8017d4:	9009883a 	mov	r4,r18
  8017d8:	1023883a 	mov	r17,r2
  8017dc:	08016200 	call	801620 <__sfp>
  8017e0:	1021883a 	mov	r16,r2
  8017e4:	10002226 	beq	r2,zero,801870 <_fopen_r+0xd0>
  8017e8:	d9800017 	ldw	r6,0(sp)
  8017ec:	01c06d84 	movi	r7,438
  8017f0:	980b883a 	mov	r5,r19
  8017f4:	9009883a 	mov	r4,r18
  8017f8:	0802bec0 	call	802bec <_open_r>
  8017fc:	10001916 	blt	r2,zero,801864 <_fopen_r+0xc4>
  801800:	8080038d 	sth	r2,14(r16)
  801804:	00802034 	movhi	r2,128
  801808:	108c2004 	addi	r2,r2,12416
  80180c:	80800815 	stw	r2,32(r16)
  801810:	00802034 	movhi	r2,128
  801814:	108c3704 	addi	r2,r2,12508
  801818:	80800915 	stw	r2,36(r16)
  80181c:	00802034 	movhi	r2,128
  801820:	108c5604 	addi	r2,r2,12632
  801824:	80800a15 	stw	r2,40(r16)
  801828:	00802034 	movhi	r2,128
  80182c:	108c6d04 	addi	r2,r2,12724
  801830:	8440030d 	sth	r17,12(r16)
  801834:	84000715 	stw	r16,28(r16)
  801838:	80800b15 	stw	r2,44(r16)
  80183c:	8c40400c 	andi	r17,r17,256
  801840:	88000d1e 	bne	r17,zero,801878 <_fopen_r+0xd8>
  801844:	8005883a 	mov	r2,r16
  801848:	dfc00517 	ldw	ra,20(sp)
  80184c:	dcc00417 	ldw	r19,16(sp)
  801850:	dc800317 	ldw	r18,12(sp)
  801854:	dc400217 	ldw	r17,8(sp)
  801858:	dc000117 	ldw	r16,4(sp)
  80185c:	dec00604 	addi	sp,sp,24
  801860:	f800283a 	ret
  801864:	08017600 	call	801760 <__sfp_lock_acquire>
  801868:	8000030d 	sth	zero,12(r16)
  80186c:	08017640 	call	801764 <__sfp_lock_release>
  801870:	0005883a 	mov	r2,zero
  801874:	003ff406 	br	801848 <__alt_mem_onchip_mem+0xff7f9848>
  801878:	01c00084 	movi	r7,2
  80187c:	000d883a 	mov	r6,zero
  801880:	800b883a 	mov	r5,r16
  801884:	9009883a 	mov	r4,r18
  801888:	08019980 	call	801998 <_fseek_r>
  80188c:	8005883a 	mov	r2,r16
  801890:	003fed06 	br	801848 <__alt_mem_onchip_mem+0xff7f9848>

00801894 <fopen>:
  801894:	00802074 	movhi	r2,129
  801898:	10931204 	addi	r2,r2,19528
  80189c:	280d883a 	mov	r6,r5
  8018a0:	200b883a 	mov	r5,r4
  8018a4:	11000017 	ldw	r4,0(r2)
  8018a8:	08017a01 	jmpi	8017a0 <_fopen_r>

008018ac <_fprintf_r>:
  8018ac:	defffe04 	addi	sp,sp,-8
  8018b0:	2809883a 	mov	r4,r5
  8018b4:	300b883a 	mov	r5,r6
  8018b8:	dfc00015 	stw	ra,0(sp)
  8018bc:	d9c00115 	stw	r7,4(sp)
  8018c0:	d9800104 	addi	r6,sp,4
  8018c4:	08053b40 	call	8053b4 <__vfprintf_internal>
  8018c8:	dfc00017 	ldw	ra,0(sp)
  8018cc:	dec00204 	addi	sp,sp,8
  8018d0:	f800283a 	ret

008018d4 <fprintf>:
  8018d4:	defffd04 	addi	sp,sp,-12
  8018d8:	dfc00015 	stw	ra,0(sp)
  8018dc:	d9800115 	stw	r6,4(sp)
  8018e0:	d9c00215 	stw	r7,8(sp)
  8018e4:	d9800104 	addi	r6,sp,4
  8018e8:	08053b40 	call	8053b4 <__vfprintf_internal>
  8018ec:	dfc00017 	ldw	ra,0(sp)
  8018f0:	dec00304 	addi	sp,sp,12
  8018f4:	f800283a 	ret

008018f8 <_fputc_r>:
  8018f8:	defffc04 	addi	sp,sp,-16
  8018fc:	dc000215 	stw	r16,8(sp)
  801900:	dfc00315 	stw	ra,12(sp)
  801904:	2021883a 	mov	r16,r4
  801908:	20000726 	beq	r4,zero,801928 <_fputc_r+0x30>
  80190c:	20800e17 	ldw	r2,56(r4)
  801910:	1000051e 	bne	r2,zero,801928 <_fputc_r+0x30>
  801914:	d9400015 	stw	r5,0(sp)
  801918:	d9800115 	stw	r6,4(sp)
  80191c:	08017500 	call	801750 <__sinit>
  801920:	d9800117 	ldw	r6,4(sp)
  801924:	d9400017 	ldw	r5,0(sp)
  801928:	8009883a 	mov	r4,r16
  80192c:	dfc00317 	ldw	ra,12(sp)
  801930:	dc000217 	ldw	r16,8(sp)
  801934:	dec00404 	addi	sp,sp,16
  801938:	0802c4c1 	jmpi	802c4c <_putc_r>

0080193c <fputc>:
  80193c:	00802074 	movhi	r2,129
  801940:	defffc04 	addi	sp,sp,-16
  801944:	10931204 	addi	r2,r2,19528
  801948:	dc000115 	stw	r16,4(sp)
  80194c:	14000017 	ldw	r16,0(r2)
  801950:	dc400215 	stw	r17,8(sp)
  801954:	dfc00315 	stw	ra,12(sp)
  801958:	2023883a 	mov	r17,r4
  80195c:	80000626 	beq	r16,zero,801978 <fputc+0x3c>
  801960:	80800e17 	ldw	r2,56(r16)
  801964:	1000041e 	bne	r2,zero,801978 <fputc+0x3c>
  801968:	8009883a 	mov	r4,r16
  80196c:	d9400015 	stw	r5,0(sp)
  801970:	08017500 	call	801750 <__sinit>
  801974:	d9400017 	ldw	r5,0(sp)
  801978:	280d883a 	mov	r6,r5
  80197c:	8009883a 	mov	r4,r16
  801980:	880b883a 	mov	r5,r17
  801984:	dfc00317 	ldw	ra,12(sp)
  801988:	dc400217 	ldw	r17,8(sp)
  80198c:	dc000117 	ldw	r16,4(sp)
  801990:	dec00404 	addi	sp,sp,16
  801994:	0802c4c1 	jmpi	802c4c <_putc_r>

00801998 <_fseek_r>:
  801998:	08019b81 	jmpi	8019b8 <_fseeko_r>

0080199c <fseek>:
  80199c:	00802074 	movhi	r2,129
  8019a0:	10931204 	addi	r2,r2,19528
  8019a4:	300f883a 	mov	r7,r6
  8019a8:	280d883a 	mov	r6,r5
  8019ac:	200b883a 	mov	r5,r4
  8019b0:	11000017 	ldw	r4,0(r2)
  8019b4:	08019b81 	jmpi	8019b8 <_fseeko_r>

008019b8 <_fseeko_r>:
  8019b8:	deffe804 	addi	sp,sp,-96
  8019bc:	dd401415 	stw	r21,80(sp)
  8019c0:	dc801115 	stw	r18,68(sp)
  8019c4:	dc401015 	stw	r17,64(sp)
  8019c8:	dc000f15 	stw	r16,60(sp)
  8019cc:	dfc01715 	stw	ra,92(sp)
  8019d0:	ddc01615 	stw	r23,88(sp)
  8019d4:	dd801515 	stw	r22,84(sp)
  8019d8:	dd001315 	stw	r20,76(sp)
  8019dc:	dcc01215 	stw	r19,72(sp)
  8019e0:	2023883a 	mov	r17,r4
  8019e4:	2821883a 	mov	r16,r5
  8019e8:	302b883a 	mov	r21,r6
  8019ec:	3825883a 	mov	r18,r7
  8019f0:	20000226 	beq	r4,zero,8019fc <_fseeko_r+0x44>
  8019f4:	20800e17 	ldw	r2,56(r4)
  8019f8:	10005a26 	beq	r2,zero,801b64 <_fseeko_r+0x1ac>
  8019fc:	8080030b 	ldhu	r2,12(r16)
  801a00:	00c04204 	movi	r3,264
  801a04:	1080420c 	andi	r2,r2,264
  801a08:	10c05b26 	beq	r2,r3,801b78 <_fseeko_r+0x1c0>
  801a0c:	85000a17 	ldw	r20,40(r16)
  801a10:	a000f626 	beq	r20,zero,801dec <_fseeko_r+0x434>
  801a14:	00800044 	movi	r2,1
  801a18:	90803e26 	beq	r18,r2,801b14 <_fseeko_r+0x15c>
  801a1c:	00800084 	movi	r2,2
  801a20:	90801026 	beq	r18,r2,801a64 <_fseeko_r+0xac>
  801a24:	90000f26 	beq	r18,zero,801a64 <_fseeko_r+0xac>
  801a28:	00800584 	movi	r2,22
  801a2c:	88800015 	stw	r2,0(r17)
  801a30:	04ffffc4 	movi	r19,-1
  801a34:	9805883a 	mov	r2,r19
  801a38:	dfc01717 	ldw	ra,92(sp)
  801a3c:	ddc01617 	ldw	r23,88(sp)
  801a40:	dd801517 	ldw	r22,84(sp)
  801a44:	dd401417 	ldw	r21,80(sp)
  801a48:	dd001317 	ldw	r20,76(sp)
  801a4c:	dcc01217 	ldw	r19,72(sp)
  801a50:	dc801117 	ldw	r18,68(sp)
  801a54:	dc401017 	ldw	r17,64(sp)
  801a58:	dc000f17 	ldw	r16,60(sp)
  801a5c:	dec01804 	addi	sp,sp,96
  801a60:	f800283a 	ret
  801a64:	80800417 	ldw	r2,16(r16)
  801a68:	002f883a 	mov	r23,zero
  801a6c:	0027883a 	mov	r19,zero
  801a70:	1000cb26 	beq	r2,zero,801da0 <_fseeko_r+0x3e8>
  801a74:	8080030b 	ldhu	r2,12(r16)
  801a78:	10c2068c 	andi	r3,r2,2074
  801a7c:	1800071e 	bne	r3,zero,801a9c <_fseeko_r+0xe4>
  801a80:	10c1000c 	andi	r3,r2,1024
  801a84:	1800451e 	bne	r3,zero,801b9c <_fseeko_r+0x1e4>
  801a88:	00c02034 	movhi	r3,128
  801a8c:	18cc5604 	addi	r3,r3,12632
  801a90:	a0c0b726 	beq	r20,r3,801d70 <_fseeko_r+0x3b8>
  801a94:	10820014 	ori	r2,r2,2048
  801a98:	8080030d 	sth	r2,12(r16)
  801a9c:	800b883a 	mov	r5,r16
  801aa0:	8809883a 	mov	r4,r17
  801aa4:	08073940 	call	807394 <_fflush_r>
  801aa8:	1027883a 	mov	r19,r2
  801aac:	103fe01e 	bne	r2,zero,801a30 <__alt_mem_onchip_mem+0xff7f9a30>
  801ab0:	81400717 	ldw	r5,28(r16)
  801ab4:	900f883a 	mov	r7,r18
  801ab8:	a80d883a 	mov	r6,r21
  801abc:	8809883a 	mov	r4,r17
  801ac0:	a03ee83a 	callr	r20
  801ac4:	00ffffc4 	movi	r3,-1
  801ac8:	10ffd926 	beq	r2,r3,801a30 <__alt_mem_onchip_mem+0xff7f9a30>
  801acc:	81400c17 	ldw	r5,48(r16)
  801ad0:	28000526 	beq	r5,zero,801ae8 <_fseeko_r+0x130>
  801ad4:	80801004 	addi	r2,r16,64
  801ad8:	28800226 	beq	r5,r2,801ae4 <_fseeko_r+0x12c>
  801adc:	8809883a 	mov	r4,r17
  801ae0:	08075f00 	call	8075f0 <_free_r>
  801ae4:	80000c15 	stw	zero,48(r16)
  801ae8:	8080030b 	ldhu	r2,12(r16)
  801aec:	80c00417 	ldw	r3,16(r16)
  801af0:	80000115 	stw	zero,4(r16)
  801af4:	10bdf7cc 	andi	r2,r2,63455
  801af8:	80c00015 	stw	r3,0(r16)
  801afc:	8080030d 	sth	r2,12(r16)
  801b00:	01800204 	movi	r6,8
  801b04:	000b883a 	mov	r5,zero
  801b08:	81001704 	addi	r4,r16,92
  801b0c:	0802ac40 	call	802ac4 <memset>
  801b10:	003fc806 	br	801a34 <__alt_mem_onchip_mem+0xff7f9a34>
  801b14:	800b883a 	mov	r5,r16
  801b18:	8809883a 	mov	r4,r17
  801b1c:	08073940 	call	807394 <_fflush_r>
  801b20:	8080030b 	ldhu	r2,12(r16)
  801b24:	10c4000c 	andi	r3,r2,4096
  801b28:	18008726 	beq	r3,zero,801d48 <_fseeko_r+0x390>
  801b2c:	84c01417 	ldw	r19,80(r16)
  801b30:	10c0010c 	andi	r3,r2,4
  801b34:	1800431e 	bne	r3,zero,801c44 <_fseeko_r+0x28c>
  801b38:	1080020c 	andi	r2,r2,8
  801b3c:	10008026 	beq	r2,zero,801d40 <_fseeko_r+0x388>
  801b40:	80c00017 	ldw	r3,0(r16)
  801b44:	80800417 	ldw	r2,16(r16)
  801b48:	18000226 	beq	r3,zero,801b54 <_fseeko_r+0x19c>
  801b4c:	1887c83a 	sub	r3,r3,r2
  801b50:	98e7883a 	add	r19,r19,r3
  801b54:	aceb883a 	add	r21,r21,r19
  801b58:	05c00044 	movi	r23,1
  801b5c:	0025883a 	mov	r18,zero
  801b60:	003fc306 	br	801a70 <__alt_mem_onchip_mem+0xff7f9a70>
  801b64:	08017500 	call	801750 <__sinit>
  801b68:	8080030b 	ldhu	r2,12(r16)
  801b6c:	00c04204 	movi	r3,264
  801b70:	1080420c 	andi	r2,r2,264
  801b74:	10ffa51e 	bne	r2,r3,801a0c <__alt_mem_onchip_mem+0xff7f9a0c>
  801b78:	800b883a 	mov	r5,r16
  801b7c:	8809883a 	mov	r4,r17
  801b80:	08073940 	call	807394 <_fflush_r>
  801b84:	003fa106 	br	801a0c <__alt_mem_onchip_mem+0xff7f9a0c>
  801b88:	8080030b 	ldhu	r2,12(r16)
  801b8c:	00c10004 	movi	r3,1024
  801b90:	80c01315 	stw	r3,76(r16)
  801b94:	10c4b03a 	or	r2,r2,r3
  801b98:	8080030d 	sth	r2,12(r16)
  801b9c:	9000311e 	bne	r18,zero,801c64 <_fseeko_r+0x2ac>
  801ba0:	a82d883a 	mov	r22,r21
  801ba4:	b800371e 	bne	r23,zero,801c84 <_fseeko_r+0x2cc>
  801ba8:	8080030b 	ldhu	r2,12(r16)
  801bac:	1084000c 	andi	r2,r2,4096
  801bb0:	10007f26 	beq	r2,zero,801db0 <_fseeko_r+0x3f8>
  801bb4:	80801417 	ldw	r2,80(r16)
  801bb8:	81800117 	ldw	r6,4(r16)
  801bbc:	81400c17 	ldw	r5,48(r16)
  801bc0:	11a7c83a 	sub	r19,r2,r6
  801bc4:	28008226 	beq	r5,zero,801dd0 <_fseeko_r+0x418>
  801bc8:	81c00f17 	ldw	r7,60(r16)
  801bcc:	99e7c83a 	sub	r19,r19,r7
  801bd0:	81000e17 	ldw	r4,56(r16)
  801bd4:	80800417 	ldw	r2,16(r16)
  801bd8:	99a7883a 	add	r19,r19,r6
  801bdc:	2087c83a 	sub	r3,r4,r2
  801be0:	98e7c83a 	sub	r19,r19,r3
  801be4:	38c7883a 	add	r3,r7,r3
  801be8:	b4c02b16 	blt	r22,r19,801c98 <_fseeko_r+0x2e0>
  801bec:	98c9883a 	add	r4,r19,r3
  801bf0:	b100292e 	bgeu	r22,r4,801c98 <_fseeko_r+0x2e0>
  801bf4:	b4e7c83a 	sub	r19,r22,r19
  801bf8:	14c5883a 	add	r2,r2,r19
  801bfc:	1ce7c83a 	sub	r19,r3,r19
  801c00:	80800015 	stw	r2,0(r16)
  801c04:	84c00115 	stw	r19,4(r16)
  801c08:	28000526 	beq	r5,zero,801c20 <_fseeko_r+0x268>
  801c0c:	80801004 	addi	r2,r16,64
  801c10:	28800226 	beq	r5,r2,801c1c <_fseeko_r+0x264>
  801c14:	8809883a 	mov	r4,r17
  801c18:	08075f00 	call	8075f0 <_free_r>
  801c1c:	80000c15 	stw	zero,48(r16)
  801c20:	8080030b 	ldhu	r2,12(r16)
  801c24:	01800204 	movi	r6,8
  801c28:	000b883a 	mov	r5,zero
  801c2c:	10bff7cc 	andi	r2,r2,65503
  801c30:	8080030d 	sth	r2,12(r16)
  801c34:	81001704 	addi	r4,r16,92
  801c38:	0802ac40 	call	802ac4 <memset>
  801c3c:	0027883a 	mov	r19,zero
  801c40:	003f7c06 	br	801a34 <__alt_mem_onchip_mem+0xff7f9a34>
  801c44:	80c00117 	ldw	r3,4(r16)
  801c48:	80800c17 	ldw	r2,48(r16)
  801c4c:	98e7c83a 	sub	r19,r19,r3
  801c50:	10003b26 	beq	r2,zero,801d40 <_fseeko_r+0x388>
  801c54:	80c00f17 	ldw	r3,60(r16)
  801c58:	80800417 	ldw	r2,16(r16)
  801c5c:	98e7c83a 	sub	r19,r19,r3
  801c60:	003fbc06 	br	801b54 <__alt_mem_onchip_mem+0xff7f9b54>
  801c64:	8140038f 	ldh	r5,14(r16)
  801c68:	d80d883a 	mov	r6,sp
  801c6c:	8809883a 	mov	r4,r17
  801c70:	0801e180 	call	801e18 <_fstat_r>
  801c74:	103f891e 	bne	r2,zero,801a9c <__alt_mem_onchip_mem+0xff7f9a9c>
  801c78:	dd800417 	ldw	r22,16(sp)
  801c7c:	adad883a 	add	r22,r21,r22
  801c80:	b83fc926 	beq	r23,zero,801ba8 <__alt_mem_onchip_mem+0xff7f9ba8>
  801c84:	81400c17 	ldw	r5,48(r16)
  801c88:	81800117 	ldw	r6,4(r16)
  801c8c:	28005026 	beq	r5,zero,801dd0 <_fseeko_r+0x418>
  801c90:	81c00f17 	ldw	r7,60(r16)
  801c94:	003fce06 	br	801bd0 <__alt_mem_onchip_mem+0xff7f9bd0>
  801c98:	84c01317 	ldw	r19,76(r16)
  801c9c:	81400717 	ldw	r5,28(r16)
  801ca0:	000f883a 	mov	r7,zero
  801ca4:	04e7c83a 	sub	r19,zero,r19
  801ca8:	9da6703a 	and	r19,r19,r22
  801cac:	980d883a 	mov	r6,r19
  801cb0:	8809883a 	mov	r4,r17
  801cb4:	a03ee83a 	callr	r20
  801cb8:	00ffffc4 	movi	r3,-1
  801cbc:	10ff7726 	beq	r2,r3,801a9c <__alt_mem_onchip_mem+0xff7f9a9c>
  801cc0:	80800417 	ldw	r2,16(r16)
  801cc4:	81400c17 	ldw	r5,48(r16)
  801cc8:	80000115 	stw	zero,4(r16)
  801ccc:	80800015 	stw	r2,0(r16)
  801cd0:	28000526 	beq	r5,zero,801ce8 <_fseeko_r+0x330>
  801cd4:	80801004 	addi	r2,r16,64
  801cd8:	28800226 	beq	r5,r2,801ce4 <_fseeko_r+0x32c>
  801cdc:	8809883a 	mov	r4,r17
  801ce0:	08075f00 	call	8075f0 <_free_r>
  801ce4:	80000c15 	stw	zero,48(r16)
  801ce8:	8080030b 	ldhu	r2,12(r16)
  801cec:	b4e7c83a 	sub	r19,r22,r19
  801cf0:	10bff7cc 	andi	r2,r2,65503
  801cf4:	8080030d 	sth	r2,12(r16)
  801cf8:	98000b26 	beq	r19,zero,801d28 <_fseeko_r+0x370>
  801cfc:	800b883a 	mov	r5,r16
  801d00:	8809883a 	mov	r4,r17
  801d04:	0802dd00 	call	802dd0 <__srefill_r>
  801d08:	103f641e 	bne	r2,zero,801a9c <__alt_mem_onchip_mem+0xff7f9a9c>
  801d0c:	80800117 	ldw	r2,4(r16)
  801d10:	14ff6236 	bltu	r2,r19,801a9c <__alt_mem_onchip_mem+0xff7f9a9c>
  801d14:	80c00017 	ldw	r3,0(r16)
  801d18:	14c5c83a 	sub	r2,r2,r19
  801d1c:	80800115 	stw	r2,4(r16)
  801d20:	1ce7883a 	add	r19,r3,r19
  801d24:	84c00015 	stw	r19,0(r16)
  801d28:	01800204 	movi	r6,8
  801d2c:	000b883a 	mov	r5,zero
  801d30:	81001704 	addi	r4,r16,92
  801d34:	0802ac40 	call	802ac4 <memset>
  801d38:	0027883a 	mov	r19,zero
  801d3c:	003f3d06 	br	801a34 <__alt_mem_onchip_mem+0xff7f9a34>
  801d40:	80800417 	ldw	r2,16(r16)
  801d44:	003f8306 	br	801b54 <__alt_mem_onchip_mem+0xff7f9b54>
  801d48:	81400717 	ldw	r5,28(r16)
  801d4c:	900f883a 	mov	r7,r18
  801d50:	000d883a 	mov	r6,zero
  801d54:	8809883a 	mov	r4,r17
  801d58:	a03ee83a 	callr	r20
  801d5c:	1027883a 	mov	r19,r2
  801d60:	00bfffc4 	movi	r2,-1
  801d64:	98bf3226 	beq	r19,r2,801a30 <__alt_mem_onchip_mem+0xff7f9a30>
  801d68:	8080030b 	ldhu	r2,12(r16)
  801d6c:	003f7006 	br	801b30 <__alt_mem_onchip_mem+0xff7f9b30>
  801d70:	8140038f 	ldh	r5,14(r16)
  801d74:	283f4716 	blt	r5,zero,801a94 <__alt_mem_onchip_mem+0xff7f9a94>
  801d78:	d80d883a 	mov	r6,sp
  801d7c:	8809883a 	mov	r4,r17
  801d80:	0801e180 	call	801e18 <_fstat_r>
  801d84:	1000041e 	bne	r2,zero,801d98 <_fseeko_r+0x3e0>
  801d88:	d8800117 	ldw	r2,4(sp)
  801d8c:	00e00014 	movui	r3,32768
  801d90:	10bc000c 	andi	r2,r2,61440
  801d94:	10ff7c26 	beq	r2,r3,801b88 <__alt_mem_onchip_mem+0xff7f9b88>
  801d98:	8080030b 	ldhu	r2,12(r16)
  801d9c:	003f3d06 	br	801a94 <__alt_mem_onchip_mem+0xff7f9a94>
  801da0:	800b883a 	mov	r5,r16
  801da4:	8809883a 	mov	r4,r17
  801da8:	08020fc0 	call	8020fc <__smakebuf_r>
  801dac:	003f3106 	br	801a74 <__alt_mem_onchip_mem+0xff7f9a74>
  801db0:	81400717 	ldw	r5,28(r16)
  801db4:	01c00044 	movi	r7,1
  801db8:	000d883a 	mov	r6,zero
  801dbc:	8809883a 	mov	r4,r17
  801dc0:	a03ee83a 	callr	r20
  801dc4:	00ffffc4 	movi	r3,-1
  801dc8:	10ff7b1e 	bne	r2,r3,801bb8 <__alt_mem_onchip_mem+0xff7f9bb8>
  801dcc:	003f3306 	br	801a9c <__alt_mem_onchip_mem+0xff7f9a9c>
  801dd0:	80c00017 	ldw	r3,0(r16)
  801dd4:	80800417 	ldw	r2,16(r16)
  801dd8:	000b883a 	mov	r5,zero
  801ddc:	1887c83a 	sub	r3,r3,r2
  801de0:	98e7c83a 	sub	r19,r19,r3
  801de4:	30c7883a 	add	r3,r6,r3
  801de8:	003f7f06 	br	801be8 <__alt_mem_onchip_mem+0xff7f9be8>
  801dec:	00800744 	movi	r2,29
  801df0:	88800015 	stw	r2,0(r17)
  801df4:	04ffffc4 	movi	r19,-1
  801df8:	003f0e06 	br	801a34 <__alt_mem_onchip_mem+0xff7f9a34>

00801dfc <fseeko>:
  801dfc:	00802074 	movhi	r2,129
  801e00:	10931204 	addi	r2,r2,19528
  801e04:	300f883a 	mov	r7,r6
  801e08:	280d883a 	mov	r6,r5
  801e0c:	200b883a 	mov	r5,r4
  801e10:	11000017 	ldw	r4,0(r2)
  801e14:	08019b81 	jmpi	8019b8 <_fseeko_r>

00801e18 <_fstat_r>:
  801e18:	defffd04 	addi	sp,sp,-12
  801e1c:	2805883a 	mov	r2,r5
  801e20:	dc000015 	stw	r16,0(sp)
  801e24:	04002074 	movhi	r16,129
  801e28:	dc400115 	stw	r17,4(sp)
  801e2c:	841a7204 	addi	r16,r16,27080
  801e30:	2023883a 	mov	r17,r4
  801e34:	300b883a 	mov	r5,r6
  801e38:	1009883a 	mov	r4,r2
  801e3c:	dfc00215 	stw	ra,8(sp)
  801e40:	80000015 	stw	zero,0(r16)
  801e44:	080e9300 	call	80e930 <fstat>
  801e48:	00ffffc4 	movi	r3,-1
  801e4c:	10c00526 	beq	r2,r3,801e64 <_fstat_r+0x4c>
  801e50:	dfc00217 	ldw	ra,8(sp)
  801e54:	dc400117 	ldw	r17,4(sp)
  801e58:	dc000017 	ldw	r16,0(sp)
  801e5c:	dec00304 	addi	sp,sp,12
  801e60:	f800283a 	ret
  801e64:	80c00017 	ldw	r3,0(r16)
  801e68:	183ff926 	beq	r3,zero,801e50 <__alt_mem_onchip_mem+0xff7f9e50>
  801e6c:	88c00015 	stw	r3,0(r17)
  801e70:	003ff706 	br	801e50 <__alt_mem_onchip_mem+0xff7f9e50>

00801e74 <_fwalk>:
  801e74:	defff704 	addi	sp,sp,-36
  801e78:	dd000415 	stw	r20,16(sp)
  801e7c:	dfc00815 	stw	ra,32(sp)
  801e80:	ddc00715 	stw	r23,28(sp)
  801e84:	dd800615 	stw	r22,24(sp)
  801e88:	dd400515 	stw	r21,20(sp)
  801e8c:	dcc00315 	stw	r19,12(sp)
  801e90:	dc800215 	stw	r18,8(sp)
  801e94:	dc400115 	stw	r17,4(sp)
  801e98:	dc000015 	stw	r16,0(sp)
  801e9c:	2500b804 	addi	r20,r4,736
  801ea0:	a0002326 	beq	r20,zero,801f30 <_fwalk+0xbc>
  801ea4:	282b883a 	mov	r21,r5
  801ea8:	002f883a 	mov	r23,zero
  801eac:	05800044 	movi	r22,1
  801eb0:	04ffffc4 	movi	r19,-1
  801eb4:	a4400117 	ldw	r17,4(r20)
  801eb8:	a4800217 	ldw	r18,8(r20)
  801ebc:	8c7fffc4 	addi	r17,r17,-1
  801ec0:	88000d16 	blt	r17,zero,801ef8 <_fwalk+0x84>
  801ec4:	94000304 	addi	r16,r18,12
  801ec8:	94800384 	addi	r18,r18,14
  801ecc:	8080000b 	ldhu	r2,0(r16)
  801ed0:	8c7fffc4 	addi	r17,r17,-1
  801ed4:	813ffd04 	addi	r4,r16,-12
  801ed8:	b080042e 	bgeu	r22,r2,801eec <_fwalk+0x78>
  801edc:	9080000f 	ldh	r2,0(r18)
  801ee0:	14c00226 	beq	r2,r19,801eec <_fwalk+0x78>
  801ee4:	a83ee83a 	callr	r21
  801ee8:	b8aeb03a 	or	r23,r23,r2
  801eec:	84001a04 	addi	r16,r16,104
  801ef0:	94801a04 	addi	r18,r18,104
  801ef4:	8cfff51e 	bne	r17,r19,801ecc <__alt_mem_onchip_mem+0xff7f9ecc>
  801ef8:	a5000017 	ldw	r20,0(r20)
  801efc:	a03fed1e 	bne	r20,zero,801eb4 <__alt_mem_onchip_mem+0xff7f9eb4>
  801f00:	b805883a 	mov	r2,r23
  801f04:	dfc00817 	ldw	ra,32(sp)
  801f08:	ddc00717 	ldw	r23,28(sp)
  801f0c:	dd800617 	ldw	r22,24(sp)
  801f10:	dd400517 	ldw	r21,20(sp)
  801f14:	dd000417 	ldw	r20,16(sp)
  801f18:	dcc00317 	ldw	r19,12(sp)
  801f1c:	dc800217 	ldw	r18,8(sp)
  801f20:	dc400117 	ldw	r17,4(sp)
  801f24:	dc000017 	ldw	r16,0(sp)
  801f28:	dec00904 	addi	sp,sp,36
  801f2c:	f800283a 	ret
  801f30:	002f883a 	mov	r23,zero
  801f34:	003ff206 	br	801f00 <__alt_mem_onchip_mem+0xff7f9f00>

00801f38 <_fwalk_reent>:
  801f38:	defff704 	addi	sp,sp,-36
  801f3c:	dd000415 	stw	r20,16(sp)
  801f40:	dfc00815 	stw	ra,32(sp)
  801f44:	ddc00715 	stw	r23,28(sp)
  801f48:	dd800615 	stw	r22,24(sp)
  801f4c:	dd400515 	stw	r21,20(sp)
  801f50:	dcc00315 	stw	r19,12(sp)
  801f54:	dc800215 	stw	r18,8(sp)
  801f58:	dc400115 	stw	r17,4(sp)
  801f5c:	dc000015 	stw	r16,0(sp)
  801f60:	2500b804 	addi	r20,r4,736
  801f64:	a0002326 	beq	r20,zero,801ff4 <_fwalk_reent+0xbc>
  801f68:	282b883a 	mov	r21,r5
  801f6c:	2027883a 	mov	r19,r4
  801f70:	002f883a 	mov	r23,zero
  801f74:	05800044 	movi	r22,1
  801f78:	04bfffc4 	movi	r18,-1
  801f7c:	a4400117 	ldw	r17,4(r20)
  801f80:	a4000217 	ldw	r16,8(r20)
  801f84:	8c7fffc4 	addi	r17,r17,-1
  801f88:	88000c16 	blt	r17,zero,801fbc <_fwalk_reent+0x84>
  801f8c:	84000304 	addi	r16,r16,12
  801f90:	8080000b 	ldhu	r2,0(r16)
  801f94:	8c7fffc4 	addi	r17,r17,-1
  801f98:	817ffd04 	addi	r5,r16,-12
  801f9c:	b080052e 	bgeu	r22,r2,801fb4 <_fwalk_reent+0x7c>
  801fa0:	8080008f 	ldh	r2,2(r16)
  801fa4:	9809883a 	mov	r4,r19
  801fa8:	14800226 	beq	r2,r18,801fb4 <_fwalk_reent+0x7c>
  801fac:	a83ee83a 	callr	r21
  801fb0:	b8aeb03a 	or	r23,r23,r2
  801fb4:	84001a04 	addi	r16,r16,104
  801fb8:	8cbff51e 	bne	r17,r18,801f90 <__alt_mem_onchip_mem+0xff7f9f90>
  801fbc:	a5000017 	ldw	r20,0(r20)
  801fc0:	a03fee1e 	bne	r20,zero,801f7c <__alt_mem_onchip_mem+0xff7f9f7c>
  801fc4:	b805883a 	mov	r2,r23
  801fc8:	dfc00817 	ldw	ra,32(sp)
  801fcc:	ddc00717 	ldw	r23,28(sp)
  801fd0:	dd800617 	ldw	r22,24(sp)
  801fd4:	dd400517 	ldw	r21,20(sp)
  801fd8:	dd000417 	ldw	r20,16(sp)
  801fdc:	dcc00317 	ldw	r19,12(sp)
  801fe0:	dc800217 	ldw	r18,8(sp)
  801fe4:	dc400117 	ldw	r17,4(sp)
  801fe8:	dc000017 	ldw	r16,0(sp)
  801fec:	dec00904 	addi	sp,sp,36
  801ff0:	f800283a 	ret
  801ff4:	002f883a 	mov	r23,zero
  801ff8:	003ff206 	br	801fc4 <__alt_mem_onchip_mem+0xff7f9fc4>

00801ffc <_fwrite_r>:
  801ffc:	defff504 	addi	sp,sp,-44
  802000:	dc800815 	stw	r18,32(sp)
  802004:	39a5383a 	mul	r18,r7,r6
  802008:	d8800304 	addi	r2,sp,12
  80200c:	d8800015 	stw	r2,0(sp)
  802010:	00800044 	movi	r2,1
  802014:	dcc00915 	stw	r19,36(sp)
  802018:	dc400715 	stw	r17,28(sp)
  80201c:	dc000615 	stw	r16,24(sp)
  802020:	d9400315 	stw	r5,12(sp)
  802024:	dfc00a15 	stw	ra,40(sp)
  802028:	dc800415 	stw	r18,16(sp)
  80202c:	dc800215 	stw	r18,8(sp)
  802030:	d8800115 	stw	r2,4(sp)
  802034:	3027883a 	mov	r19,r6
  802038:	3821883a 	mov	r16,r7
  80203c:	2023883a 	mov	r17,r4
  802040:	d9400b17 	ldw	r5,44(sp)
  802044:	20000226 	beq	r4,zero,802050 <_fwrite_r+0x54>
  802048:	20800e17 	ldw	r2,56(r4)
  80204c:	10001a26 	beq	r2,zero,8020b8 <_fwrite_r+0xbc>
  802050:	2880030b 	ldhu	r2,12(r5)
  802054:	10c8000c 	andi	r3,r2,8192
  802058:	1800061e 	bne	r3,zero,802074 <_fwrite_r+0x78>
  80205c:	29001917 	ldw	r4,100(r5)
  802060:	00f7ffc4 	movi	r3,-8193
  802064:	10880014 	ori	r2,r2,8192
  802068:	20c6703a 	and	r3,r4,r3
  80206c:	2880030d 	sth	r2,12(r5)
  802070:	28c01915 	stw	r3,100(r5)
  802074:	d80d883a 	mov	r6,sp
  802078:	8809883a 	mov	r4,r17
  80207c:	08079000 	call	807900 <__sfvwrite_r>
  802080:	10000b26 	beq	r2,zero,8020b0 <_fwrite_r+0xb4>
  802084:	d9000217 	ldw	r4,8(sp)
  802088:	980b883a 	mov	r5,r19
  80208c:	9109c83a 	sub	r4,r18,r4
  802090:	080124c0 	call	80124c <__udivsi3>
  802094:	dfc00a17 	ldw	ra,40(sp)
  802098:	dcc00917 	ldw	r19,36(sp)
  80209c:	dc800817 	ldw	r18,32(sp)
  8020a0:	dc400717 	ldw	r17,28(sp)
  8020a4:	dc000617 	ldw	r16,24(sp)
  8020a8:	dec00b04 	addi	sp,sp,44
  8020ac:	f800283a 	ret
  8020b0:	8005883a 	mov	r2,r16
  8020b4:	003ff706 	br	802094 <__alt_mem_onchip_mem+0xff7fa094>
  8020b8:	d9400515 	stw	r5,20(sp)
  8020bc:	08017500 	call	801750 <__sinit>
  8020c0:	d9400517 	ldw	r5,20(sp)
  8020c4:	003fe206 	br	802050 <__alt_mem_onchip_mem+0xff7fa050>

008020c8 <fwrite>:
  8020c8:	defffe04 	addi	sp,sp,-8
  8020cc:	00802074 	movhi	r2,129
  8020d0:	d9c00015 	stw	r7,0(sp)
  8020d4:	10931204 	addi	r2,r2,19528
  8020d8:	300f883a 	mov	r7,r6
  8020dc:	280d883a 	mov	r6,r5
  8020e0:	200b883a 	mov	r5,r4
  8020e4:	11000017 	ldw	r4,0(r2)
  8020e8:	dfc00115 	stw	ra,4(sp)
  8020ec:	0801ffc0 	call	801ffc <_fwrite_r>
  8020f0:	dfc00117 	ldw	ra,4(sp)
  8020f4:	dec00204 	addi	sp,sp,8
  8020f8:	f800283a 	ret

008020fc <__smakebuf_r>:
  8020fc:	2880030b 	ldhu	r2,12(r5)
  802100:	10c0008c 	andi	r3,r2,2
  802104:	1800411e 	bne	r3,zero,80220c <__smakebuf_r+0x110>
  802108:	deffec04 	addi	sp,sp,-80
  80210c:	dc000f15 	stw	r16,60(sp)
  802110:	2821883a 	mov	r16,r5
  802114:	2940038f 	ldh	r5,14(r5)
  802118:	dc401015 	stw	r17,64(sp)
  80211c:	dfc01315 	stw	ra,76(sp)
  802120:	dcc01215 	stw	r19,72(sp)
  802124:	dc801115 	stw	r18,68(sp)
  802128:	2023883a 	mov	r17,r4
  80212c:	28001c16 	blt	r5,zero,8021a0 <__smakebuf_r+0xa4>
  802130:	d80d883a 	mov	r6,sp
  802134:	0801e180 	call	801e18 <_fstat_r>
  802138:	10001816 	blt	r2,zero,80219c <__smakebuf_r+0xa0>
  80213c:	d8800117 	ldw	r2,4(sp)
  802140:	00e00014 	movui	r3,32768
  802144:	10bc000c 	andi	r2,r2,61440
  802148:	14c80020 	cmpeqi	r19,r2,8192
  80214c:	10c03726 	beq	r2,r3,80222c <__smakebuf_r+0x130>
  802150:	80c0030b 	ldhu	r3,12(r16)
  802154:	18c20014 	ori	r3,r3,2048
  802158:	80c0030d 	sth	r3,12(r16)
  80215c:	00c80004 	movi	r3,8192
  802160:	10c0521e 	bne	r2,r3,8022ac <__smakebuf_r+0x1b0>
  802164:	8140038f 	ldh	r5,14(r16)
  802168:	8809883a 	mov	r4,r17
  80216c:	0807dbc0 	call	807dbc <_isatty_r>
  802170:	10004c26 	beq	r2,zero,8022a4 <__smakebuf_r+0x1a8>
  802174:	8080030b 	ldhu	r2,12(r16)
  802178:	80c010c4 	addi	r3,r16,67
  80217c:	80c00015 	stw	r3,0(r16)
  802180:	10800054 	ori	r2,r2,1
  802184:	8080030d 	sth	r2,12(r16)
  802188:	00800044 	movi	r2,1
  80218c:	80c00415 	stw	r3,16(r16)
  802190:	80800515 	stw	r2,20(r16)
  802194:	04810004 	movi	r18,1024
  802198:	00000706 	br	8021b8 <__smakebuf_r+0xbc>
  80219c:	8080030b 	ldhu	r2,12(r16)
  8021a0:	10c0200c 	andi	r3,r2,128
  8021a4:	18001f1e 	bne	r3,zero,802224 <__smakebuf_r+0x128>
  8021a8:	04810004 	movi	r18,1024
  8021ac:	10820014 	ori	r2,r2,2048
  8021b0:	8080030d 	sth	r2,12(r16)
  8021b4:	0027883a 	mov	r19,zero
  8021b8:	900b883a 	mov	r5,r18
  8021bc:	8809883a 	mov	r4,r17
  8021c0:	08022b80 	call	8022b8 <_malloc_r>
  8021c4:	10002c26 	beq	r2,zero,802278 <__smakebuf_r+0x17c>
  8021c8:	80c0030b 	ldhu	r3,12(r16)
  8021cc:	01002034 	movhi	r4,128
  8021d0:	21050204 	addi	r4,r4,5128
  8021d4:	89000f15 	stw	r4,60(r17)
  8021d8:	18c02014 	ori	r3,r3,128
  8021dc:	80c0030d 	sth	r3,12(r16)
  8021e0:	80800015 	stw	r2,0(r16)
  8021e4:	80800415 	stw	r2,16(r16)
  8021e8:	84800515 	stw	r18,20(r16)
  8021ec:	98001a1e 	bne	r19,zero,802258 <__smakebuf_r+0x15c>
  8021f0:	dfc01317 	ldw	ra,76(sp)
  8021f4:	dcc01217 	ldw	r19,72(sp)
  8021f8:	dc801117 	ldw	r18,68(sp)
  8021fc:	dc401017 	ldw	r17,64(sp)
  802200:	dc000f17 	ldw	r16,60(sp)
  802204:	dec01404 	addi	sp,sp,80
  802208:	f800283a 	ret
  80220c:	288010c4 	addi	r2,r5,67
  802210:	28800015 	stw	r2,0(r5)
  802214:	28800415 	stw	r2,16(r5)
  802218:	00800044 	movi	r2,1
  80221c:	28800515 	stw	r2,20(r5)
  802220:	f800283a 	ret
  802224:	04801004 	movi	r18,64
  802228:	003fe006 	br	8021ac <__alt_mem_onchip_mem+0xff7fa1ac>
  80222c:	81000a17 	ldw	r4,40(r16)
  802230:	00c02034 	movhi	r3,128
  802234:	18cc5604 	addi	r3,r3,12632
  802238:	20ffc51e 	bne	r4,r3,802150 <__alt_mem_onchip_mem+0xff7fa150>
  80223c:	8080030b 	ldhu	r2,12(r16)
  802240:	04810004 	movi	r18,1024
  802244:	84801315 	stw	r18,76(r16)
  802248:	1484b03a 	or	r2,r2,r18
  80224c:	8080030d 	sth	r2,12(r16)
  802250:	0027883a 	mov	r19,zero
  802254:	003fd806 	br	8021b8 <__alt_mem_onchip_mem+0xff7fa1b8>
  802258:	8140038f 	ldh	r5,14(r16)
  80225c:	8809883a 	mov	r4,r17
  802260:	0807dbc0 	call	807dbc <_isatty_r>
  802264:	103fe226 	beq	r2,zero,8021f0 <__alt_mem_onchip_mem+0xff7fa1f0>
  802268:	8080030b 	ldhu	r2,12(r16)
  80226c:	10800054 	ori	r2,r2,1
  802270:	8080030d 	sth	r2,12(r16)
  802274:	003fde06 	br	8021f0 <__alt_mem_onchip_mem+0xff7fa1f0>
  802278:	8080030b 	ldhu	r2,12(r16)
  80227c:	10c0800c 	andi	r3,r2,512
  802280:	183fdb1e 	bne	r3,zero,8021f0 <__alt_mem_onchip_mem+0xff7fa1f0>
  802284:	10800094 	ori	r2,r2,2
  802288:	80c010c4 	addi	r3,r16,67
  80228c:	8080030d 	sth	r2,12(r16)
  802290:	00800044 	movi	r2,1
  802294:	80c00015 	stw	r3,0(r16)
  802298:	80c00415 	stw	r3,16(r16)
  80229c:	80800515 	stw	r2,20(r16)
  8022a0:	003fd306 	br	8021f0 <__alt_mem_onchip_mem+0xff7fa1f0>
  8022a4:	04810004 	movi	r18,1024
  8022a8:	003fc306 	br	8021b8 <__alt_mem_onchip_mem+0xff7fa1b8>
  8022ac:	0027883a 	mov	r19,zero
  8022b0:	04810004 	movi	r18,1024
  8022b4:	003fc006 	br	8021b8 <__alt_mem_onchip_mem+0xff7fa1b8>

008022b8 <_malloc_r>:
  8022b8:	defff504 	addi	sp,sp,-44
  8022bc:	dc800315 	stw	r18,12(sp)
  8022c0:	dfc00a15 	stw	ra,40(sp)
  8022c4:	df000915 	stw	fp,36(sp)
  8022c8:	ddc00815 	stw	r23,32(sp)
  8022cc:	dd800715 	stw	r22,28(sp)
  8022d0:	dd400615 	stw	r21,24(sp)
  8022d4:	dd000515 	stw	r20,20(sp)
  8022d8:	dcc00415 	stw	r19,16(sp)
  8022dc:	dc400215 	stw	r17,8(sp)
  8022e0:	dc000115 	stw	r16,4(sp)
  8022e4:	288002c4 	addi	r2,r5,11
  8022e8:	00c00584 	movi	r3,22
  8022ec:	2025883a 	mov	r18,r4
  8022f0:	18807f2e 	bgeu	r3,r2,8024f0 <_malloc_r+0x238>
  8022f4:	047ffe04 	movi	r17,-8
  8022f8:	1462703a 	and	r17,r2,r17
  8022fc:	8800a316 	blt	r17,zero,80258c <_malloc_r+0x2d4>
  802300:	8940a236 	bltu	r17,r5,80258c <_malloc_r+0x2d4>
  802304:	080eeb80 	call	80eeb8 <__malloc_lock>
  802308:	00807dc4 	movi	r2,503
  80230c:	1441e92e 	bgeu	r2,r17,802ab4 <_malloc_r+0x7fc>
  802310:	8804d27a 	srli	r2,r17,9
  802314:	1000a126 	beq	r2,zero,80259c <_malloc_r+0x2e4>
  802318:	00c00104 	movi	r3,4
  80231c:	18811e36 	bltu	r3,r2,802798 <_malloc_r+0x4e0>
  802320:	8804d1ba 	srli	r2,r17,6
  802324:	12000e44 	addi	r8,r2,57
  802328:	11c00e04 	addi	r7,r2,56
  80232c:	4209883a 	add	r4,r8,r8
  802330:	04c02074 	movhi	r19,129
  802334:	2109883a 	add	r4,r4,r4
  802338:	9cccf604 	addi	r19,r19,13272
  80233c:	2109883a 	add	r4,r4,r4
  802340:	9909883a 	add	r4,r19,r4
  802344:	24000117 	ldw	r16,4(r4)
  802348:	213ffe04 	addi	r4,r4,-8
  80234c:	24009726 	beq	r4,r16,8025ac <_malloc_r+0x2f4>
  802350:	80800117 	ldw	r2,4(r16)
  802354:	01bfff04 	movi	r6,-4
  802358:	014003c4 	movi	r5,15
  80235c:	1184703a 	and	r2,r2,r6
  802360:	1447c83a 	sub	r3,r2,r17
  802364:	28c00716 	blt	r5,r3,802384 <_malloc_r+0xcc>
  802368:	1800920e 	bge	r3,zero,8025b4 <_malloc_r+0x2fc>
  80236c:	84000317 	ldw	r16,12(r16)
  802370:	24008e26 	beq	r4,r16,8025ac <_malloc_r+0x2f4>
  802374:	80800117 	ldw	r2,4(r16)
  802378:	1184703a 	and	r2,r2,r6
  80237c:	1447c83a 	sub	r3,r2,r17
  802380:	28fff90e 	bge	r5,r3,802368 <__alt_mem_onchip_mem+0xff7fa368>
  802384:	3809883a 	mov	r4,r7
  802388:	01802074 	movhi	r6,129
  80238c:	9c000417 	ldw	r16,16(r19)
  802390:	318cf604 	addi	r6,r6,13272
  802394:	32000204 	addi	r8,r6,8
  802398:	82013426 	beq	r16,r8,80286c <_malloc_r+0x5b4>
  80239c:	80c00117 	ldw	r3,4(r16)
  8023a0:	00bfff04 	movi	r2,-4
  8023a4:	188e703a 	and	r7,r3,r2
  8023a8:	3c45c83a 	sub	r2,r7,r17
  8023ac:	00c003c4 	movi	r3,15
  8023b0:	18811f16 	blt	r3,r2,802830 <_malloc_r+0x578>
  8023b4:	32000515 	stw	r8,20(r6)
  8023b8:	32000415 	stw	r8,16(r6)
  8023bc:	10007f0e 	bge	r2,zero,8025bc <_malloc_r+0x304>
  8023c0:	00807fc4 	movi	r2,511
  8023c4:	11c0fd36 	bltu	r2,r7,8027bc <_malloc_r+0x504>
  8023c8:	3806d0fa 	srli	r3,r7,3
  8023cc:	01c00044 	movi	r7,1
  8023d0:	30800117 	ldw	r2,4(r6)
  8023d4:	19400044 	addi	r5,r3,1
  8023d8:	294b883a 	add	r5,r5,r5
  8023dc:	1807d0ba 	srai	r3,r3,2
  8023e0:	294b883a 	add	r5,r5,r5
  8023e4:	294b883a 	add	r5,r5,r5
  8023e8:	298b883a 	add	r5,r5,r6
  8023ec:	38c6983a 	sll	r3,r7,r3
  8023f0:	29c00017 	ldw	r7,0(r5)
  8023f4:	2a7ffe04 	addi	r9,r5,-8
  8023f8:	1886b03a 	or	r3,r3,r2
  8023fc:	82400315 	stw	r9,12(r16)
  802400:	81c00215 	stw	r7,8(r16)
  802404:	30c00115 	stw	r3,4(r6)
  802408:	2c000015 	stw	r16,0(r5)
  80240c:	3c000315 	stw	r16,12(r7)
  802410:	2005d0ba 	srai	r2,r4,2
  802414:	01400044 	movi	r5,1
  802418:	288a983a 	sll	r5,r5,r2
  80241c:	19406f36 	bltu	r3,r5,8025dc <_malloc_r+0x324>
  802420:	28c4703a 	and	r2,r5,r3
  802424:	10000a1e 	bne	r2,zero,802450 <_malloc_r+0x198>
  802428:	00bfff04 	movi	r2,-4
  80242c:	294b883a 	add	r5,r5,r5
  802430:	2088703a 	and	r4,r4,r2
  802434:	28c4703a 	and	r2,r5,r3
  802438:	21000104 	addi	r4,r4,4
  80243c:	1000041e 	bne	r2,zero,802450 <_malloc_r+0x198>
  802440:	294b883a 	add	r5,r5,r5
  802444:	28c4703a 	and	r2,r5,r3
  802448:	21000104 	addi	r4,r4,4
  80244c:	103ffc26 	beq	r2,zero,802440 <__alt_mem_onchip_mem+0xff7fa440>
  802450:	02bfff04 	movi	r10,-4
  802454:	024003c4 	movi	r9,15
  802458:	21800044 	addi	r6,r4,1
  80245c:	318d883a 	add	r6,r6,r6
  802460:	318d883a 	add	r6,r6,r6
  802464:	318d883a 	add	r6,r6,r6
  802468:	998d883a 	add	r6,r19,r6
  80246c:	333ffe04 	addi	r12,r6,-8
  802470:	2017883a 	mov	r11,r4
  802474:	31800104 	addi	r6,r6,4
  802478:	34000017 	ldw	r16,0(r6)
  80247c:	31fffd04 	addi	r7,r6,-12
  802480:	81c0041e 	bne	r16,r7,802494 <_malloc_r+0x1dc>
  802484:	0000fb06 	br	802874 <_malloc_r+0x5bc>
  802488:	1801030e 	bge	r3,zero,802898 <_malloc_r+0x5e0>
  80248c:	84000317 	ldw	r16,12(r16)
  802490:	81c0f826 	beq	r16,r7,802874 <_malloc_r+0x5bc>
  802494:	80800117 	ldw	r2,4(r16)
  802498:	1284703a 	and	r2,r2,r10
  80249c:	1447c83a 	sub	r3,r2,r17
  8024a0:	48fff90e 	bge	r9,r3,802488 <__alt_mem_onchip_mem+0xff7fa488>
  8024a4:	80800317 	ldw	r2,12(r16)
  8024a8:	81000217 	ldw	r4,8(r16)
  8024ac:	89400054 	ori	r5,r17,1
  8024b0:	81400115 	stw	r5,4(r16)
  8024b4:	20800315 	stw	r2,12(r4)
  8024b8:	11000215 	stw	r4,8(r2)
  8024bc:	8463883a 	add	r17,r16,r17
  8024c0:	9c400515 	stw	r17,20(r19)
  8024c4:	9c400415 	stw	r17,16(r19)
  8024c8:	18800054 	ori	r2,r3,1
  8024cc:	88800115 	stw	r2,4(r17)
  8024d0:	8a000315 	stw	r8,12(r17)
  8024d4:	8a000215 	stw	r8,8(r17)
  8024d8:	88e3883a 	add	r17,r17,r3
  8024dc:	88c00015 	stw	r3,0(r17)
  8024e0:	9009883a 	mov	r4,r18
  8024e4:	080eedc0 	call	80eedc <__malloc_unlock>
  8024e8:	80800204 	addi	r2,r16,8
  8024ec:	00001b06 	br	80255c <_malloc_r+0x2a4>
  8024f0:	04400404 	movi	r17,16
  8024f4:	89402536 	bltu	r17,r5,80258c <_malloc_r+0x2d4>
  8024f8:	080eeb80 	call	80eeb8 <__malloc_lock>
  8024fc:	00800184 	movi	r2,6
  802500:	01000084 	movi	r4,2
  802504:	04c02074 	movhi	r19,129
  802508:	1085883a 	add	r2,r2,r2
  80250c:	9cccf604 	addi	r19,r19,13272
  802510:	1085883a 	add	r2,r2,r2
  802514:	9885883a 	add	r2,r19,r2
  802518:	14000117 	ldw	r16,4(r2)
  80251c:	10fffe04 	addi	r3,r2,-8
  802520:	80c0d926 	beq	r16,r3,802888 <_malloc_r+0x5d0>
  802524:	80c00117 	ldw	r3,4(r16)
  802528:	81000317 	ldw	r4,12(r16)
  80252c:	00bfff04 	movi	r2,-4
  802530:	1884703a 	and	r2,r3,r2
  802534:	81400217 	ldw	r5,8(r16)
  802538:	8085883a 	add	r2,r16,r2
  80253c:	10c00117 	ldw	r3,4(r2)
  802540:	29000315 	stw	r4,12(r5)
  802544:	21400215 	stw	r5,8(r4)
  802548:	18c00054 	ori	r3,r3,1
  80254c:	10c00115 	stw	r3,4(r2)
  802550:	9009883a 	mov	r4,r18
  802554:	080eedc0 	call	80eedc <__malloc_unlock>
  802558:	80800204 	addi	r2,r16,8
  80255c:	dfc00a17 	ldw	ra,40(sp)
  802560:	df000917 	ldw	fp,36(sp)
  802564:	ddc00817 	ldw	r23,32(sp)
  802568:	dd800717 	ldw	r22,28(sp)
  80256c:	dd400617 	ldw	r21,24(sp)
  802570:	dd000517 	ldw	r20,20(sp)
  802574:	dcc00417 	ldw	r19,16(sp)
  802578:	dc800317 	ldw	r18,12(sp)
  80257c:	dc400217 	ldw	r17,8(sp)
  802580:	dc000117 	ldw	r16,4(sp)
  802584:	dec00b04 	addi	sp,sp,44
  802588:	f800283a 	ret
  80258c:	00800304 	movi	r2,12
  802590:	90800015 	stw	r2,0(r18)
  802594:	0005883a 	mov	r2,zero
  802598:	003ff006 	br	80255c <__alt_mem_onchip_mem+0xff7fa55c>
  80259c:	01002004 	movi	r4,128
  8025a0:	02001004 	movi	r8,64
  8025a4:	01c00fc4 	movi	r7,63
  8025a8:	003f6106 	br	802330 <__alt_mem_onchip_mem+0xff7fa330>
  8025ac:	4009883a 	mov	r4,r8
  8025b0:	003f7506 	br	802388 <__alt_mem_onchip_mem+0xff7fa388>
  8025b4:	81000317 	ldw	r4,12(r16)
  8025b8:	003fde06 	br	802534 <__alt_mem_onchip_mem+0xff7fa534>
  8025bc:	81c5883a 	add	r2,r16,r7
  8025c0:	11400117 	ldw	r5,4(r2)
  8025c4:	9009883a 	mov	r4,r18
  8025c8:	29400054 	ori	r5,r5,1
  8025cc:	11400115 	stw	r5,4(r2)
  8025d0:	080eedc0 	call	80eedc <__malloc_unlock>
  8025d4:	80800204 	addi	r2,r16,8
  8025d8:	003fe006 	br	80255c <__alt_mem_onchip_mem+0xff7fa55c>
  8025dc:	9c000217 	ldw	r16,8(r19)
  8025e0:	00bfff04 	movi	r2,-4
  8025e4:	85800117 	ldw	r22,4(r16)
  8025e8:	b0ac703a 	and	r22,r22,r2
  8025ec:	b4400336 	bltu	r22,r17,8025fc <_malloc_r+0x344>
  8025f0:	b445c83a 	sub	r2,r22,r17
  8025f4:	00c003c4 	movi	r3,15
  8025f8:	18805d16 	blt	r3,r2,802770 <_malloc_r+0x4b8>
  8025fc:	05c02074 	movhi	r23,129
  802600:	00802074 	movhi	r2,129
  802604:	109a7504 	addi	r2,r2,27092
  802608:	bdd31304 	addi	r23,r23,19532
  80260c:	15400017 	ldw	r21,0(r2)
  802610:	b8c00017 	ldw	r3,0(r23)
  802614:	00bfffc4 	movi	r2,-1
  802618:	858d883a 	add	r6,r16,r22
  80261c:	8d6b883a 	add	r21,r17,r21
  802620:	1880ea26 	beq	r3,r2,8029cc <_malloc_r+0x714>
  802624:	ad4403c4 	addi	r21,r21,4111
  802628:	00bc0004 	movi	r2,-4096
  80262c:	a8aa703a 	and	r21,r21,r2
  802630:	a80b883a 	mov	r5,r21
  802634:	9009883a 	mov	r4,r18
  802638:	d9800015 	stw	r6,0(sp)
  80263c:	080302c0 	call	80302c <_sbrk_r>
  802640:	1029883a 	mov	r20,r2
  802644:	00bfffc4 	movi	r2,-1
  802648:	d9800017 	ldw	r6,0(sp)
  80264c:	a080e826 	beq	r20,r2,8029f0 <_malloc_r+0x738>
  802650:	a180a636 	bltu	r20,r6,8028ec <_malloc_r+0x634>
  802654:	07002074 	movhi	fp,129
  802658:	e71a8004 	addi	fp,fp,27136
  80265c:	e0800017 	ldw	r2,0(fp)
  802660:	a887883a 	add	r3,r21,r2
  802664:	e0c00015 	stw	r3,0(fp)
  802668:	3500e626 	beq	r6,r20,802a04 <_malloc_r+0x74c>
  80266c:	b9000017 	ldw	r4,0(r23)
  802670:	00bfffc4 	movi	r2,-1
  802674:	2080ee26 	beq	r4,r2,802a30 <_malloc_r+0x778>
  802678:	a185c83a 	sub	r2,r20,r6
  80267c:	10c5883a 	add	r2,r2,r3
  802680:	e0800015 	stw	r2,0(fp)
  802684:	a0c001cc 	andi	r3,r20,7
  802688:	1800bc26 	beq	r3,zero,80297c <_malloc_r+0x6c4>
  80268c:	a0e9c83a 	sub	r20,r20,r3
  802690:	00840204 	movi	r2,4104
  802694:	a5000204 	addi	r20,r20,8
  802698:	10c7c83a 	sub	r3,r2,r3
  80269c:	a545883a 	add	r2,r20,r21
  8026a0:	1083ffcc 	andi	r2,r2,4095
  8026a4:	18abc83a 	sub	r21,r3,r2
  8026a8:	a80b883a 	mov	r5,r21
  8026ac:	9009883a 	mov	r4,r18
  8026b0:	080302c0 	call	80302c <_sbrk_r>
  8026b4:	00ffffc4 	movi	r3,-1
  8026b8:	10c0e126 	beq	r2,r3,802a40 <_malloc_r+0x788>
  8026bc:	1505c83a 	sub	r2,r2,r20
  8026c0:	1545883a 	add	r2,r2,r21
  8026c4:	10800054 	ori	r2,r2,1
  8026c8:	e0c00017 	ldw	r3,0(fp)
  8026cc:	9d000215 	stw	r20,8(r19)
  8026d0:	a0800115 	stw	r2,4(r20)
  8026d4:	a8c7883a 	add	r3,r21,r3
  8026d8:	e0c00015 	stw	r3,0(fp)
  8026dc:	84c00e26 	beq	r16,r19,802718 <_malloc_r+0x460>
  8026e0:	018003c4 	movi	r6,15
  8026e4:	3580a72e 	bgeu	r6,r22,802984 <_malloc_r+0x6cc>
  8026e8:	81400117 	ldw	r5,4(r16)
  8026ec:	013ffe04 	movi	r4,-8
  8026f0:	b0bffd04 	addi	r2,r22,-12
  8026f4:	1104703a 	and	r2,r2,r4
  8026f8:	2900004c 	andi	r4,r5,1
  8026fc:	2088b03a 	or	r4,r4,r2
  802700:	81000115 	stw	r4,4(r16)
  802704:	01400144 	movi	r5,5
  802708:	8089883a 	add	r4,r16,r2
  80270c:	21400115 	stw	r5,4(r4)
  802710:	21400215 	stw	r5,8(r4)
  802714:	3080cd36 	bltu	r6,r2,802a4c <_malloc_r+0x794>
  802718:	00802074 	movhi	r2,129
  80271c:	109a7404 	addi	r2,r2,27088
  802720:	11000017 	ldw	r4,0(r2)
  802724:	20c0012e 	bgeu	r4,r3,80272c <_malloc_r+0x474>
  802728:	10c00015 	stw	r3,0(r2)
  80272c:	00802074 	movhi	r2,129
  802730:	109a7304 	addi	r2,r2,27084
  802734:	11000017 	ldw	r4,0(r2)
  802738:	9c000217 	ldw	r16,8(r19)
  80273c:	20c0012e 	bgeu	r4,r3,802744 <_malloc_r+0x48c>
  802740:	10c00015 	stw	r3,0(r2)
  802744:	80c00117 	ldw	r3,4(r16)
  802748:	00bfff04 	movi	r2,-4
  80274c:	1886703a 	and	r3,r3,r2
  802750:	1c45c83a 	sub	r2,r3,r17
  802754:	1c400236 	bltu	r3,r17,802760 <_malloc_r+0x4a8>
  802758:	00c003c4 	movi	r3,15
  80275c:	18800416 	blt	r3,r2,802770 <_malloc_r+0x4b8>
  802760:	9009883a 	mov	r4,r18
  802764:	080eedc0 	call	80eedc <__malloc_unlock>
  802768:	0005883a 	mov	r2,zero
  80276c:	003f7b06 	br	80255c <__alt_mem_onchip_mem+0xff7fa55c>
  802770:	88c00054 	ori	r3,r17,1
  802774:	80c00115 	stw	r3,4(r16)
  802778:	8463883a 	add	r17,r16,r17
  80277c:	10800054 	ori	r2,r2,1
  802780:	9c400215 	stw	r17,8(r19)
  802784:	88800115 	stw	r2,4(r17)
  802788:	9009883a 	mov	r4,r18
  80278c:	080eedc0 	call	80eedc <__malloc_unlock>
  802790:	80800204 	addi	r2,r16,8
  802794:	003f7106 	br	80255c <__alt_mem_onchip_mem+0xff7fa55c>
  802798:	00c00504 	movi	r3,20
  80279c:	18804a2e 	bgeu	r3,r2,8028c8 <_malloc_r+0x610>
  8027a0:	00c01504 	movi	r3,84
  8027a4:	18806e36 	bltu	r3,r2,802960 <_malloc_r+0x6a8>
  8027a8:	8804d33a 	srli	r2,r17,12
  8027ac:	12001bc4 	addi	r8,r2,111
  8027b0:	11c01b84 	addi	r7,r2,110
  8027b4:	4209883a 	add	r4,r8,r8
  8027b8:	003edd06 	br	802330 <__alt_mem_onchip_mem+0xff7fa330>
  8027bc:	3804d27a 	srli	r2,r7,9
  8027c0:	00c00104 	movi	r3,4
  8027c4:	1880442e 	bgeu	r3,r2,8028d8 <_malloc_r+0x620>
  8027c8:	00c00504 	movi	r3,20
  8027cc:	18808136 	bltu	r3,r2,8029d4 <_malloc_r+0x71c>
  8027d0:	11401704 	addi	r5,r2,92
  8027d4:	10c016c4 	addi	r3,r2,91
  8027d8:	294b883a 	add	r5,r5,r5
  8027dc:	294b883a 	add	r5,r5,r5
  8027e0:	294b883a 	add	r5,r5,r5
  8027e4:	994b883a 	add	r5,r19,r5
  8027e8:	28800017 	ldw	r2,0(r5)
  8027ec:	01802074 	movhi	r6,129
  8027f0:	297ffe04 	addi	r5,r5,-8
  8027f4:	318cf604 	addi	r6,r6,13272
  8027f8:	28806526 	beq	r5,r2,802990 <_malloc_r+0x6d8>
  8027fc:	01bfff04 	movi	r6,-4
  802800:	10c00117 	ldw	r3,4(r2)
  802804:	1986703a 	and	r3,r3,r6
  802808:	38c0022e 	bgeu	r7,r3,802814 <_malloc_r+0x55c>
  80280c:	10800217 	ldw	r2,8(r2)
  802810:	28bffb1e 	bne	r5,r2,802800 <__alt_mem_onchip_mem+0xff7fa800>
  802814:	11400317 	ldw	r5,12(r2)
  802818:	98c00117 	ldw	r3,4(r19)
  80281c:	81400315 	stw	r5,12(r16)
  802820:	80800215 	stw	r2,8(r16)
  802824:	2c000215 	stw	r16,8(r5)
  802828:	14000315 	stw	r16,12(r2)
  80282c:	003ef806 	br	802410 <__alt_mem_onchip_mem+0xff7fa410>
  802830:	88c00054 	ori	r3,r17,1
  802834:	80c00115 	stw	r3,4(r16)
  802838:	8463883a 	add	r17,r16,r17
  80283c:	34400515 	stw	r17,20(r6)
  802840:	34400415 	stw	r17,16(r6)
  802844:	10c00054 	ori	r3,r2,1
  802848:	8a000315 	stw	r8,12(r17)
  80284c:	8a000215 	stw	r8,8(r17)
  802850:	88c00115 	stw	r3,4(r17)
  802854:	88a3883a 	add	r17,r17,r2
  802858:	88800015 	stw	r2,0(r17)
  80285c:	9009883a 	mov	r4,r18
  802860:	080eedc0 	call	80eedc <__malloc_unlock>
  802864:	80800204 	addi	r2,r16,8
  802868:	003f3c06 	br	80255c <__alt_mem_onchip_mem+0xff7fa55c>
  80286c:	30c00117 	ldw	r3,4(r6)
  802870:	003ee706 	br	802410 <__alt_mem_onchip_mem+0xff7fa410>
  802874:	5ac00044 	addi	r11,r11,1
  802878:	588000cc 	andi	r2,r11,3
  80287c:	31800204 	addi	r6,r6,8
  802880:	103efd1e 	bne	r2,zero,802478 <__alt_mem_onchip_mem+0xff7fa478>
  802884:	00002406 	br	802918 <_malloc_r+0x660>
  802888:	14000317 	ldw	r16,12(r2)
  80288c:	143f251e 	bne	r2,r16,802524 <__alt_mem_onchip_mem+0xff7fa524>
  802890:	21000084 	addi	r4,r4,2
  802894:	003ebc06 	br	802388 <__alt_mem_onchip_mem+0xff7fa388>
  802898:	8085883a 	add	r2,r16,r2
  80289c:	10c00117 	ldw	r3,4(r2)
  8028a0:	81000317 	ldw	r4,12(r16)
  8028a4:	81400217 	ldw	r5,8(r16)
  8028a8:	18c00054 	ori	r3,r3,1
  8028ac:	10c00115 	stw	r3,4(r2)
  8028b0:	29000315 	stw	r4,12(r5)
  8028b4:	21400215 	stw	r5,8(r4)
  8028b8:	9009883a 	mov	r4,r18
  8028bc:	080eedc0 	call	80eedc <__malloc_unlock>
  8028c0:	80800204 	addi	r2,r16,8
  8028c4:	003f2506 	br	80255c <__alt_mem_onchip_mem+0xff7fa55c>
  8028c8:	12001704 	addi	r8,r2,92
  8028cc:	11c016c4 	addi	r7,r2,91
  8028d0:	4209883a 	add	r4,r8,r8
  8028d4:	003e9606 	br	802330 <__alt_mem_onchip_mem+0xff7fa330>
  8028d8:	3804d1ba 	srli	r2,r7,6
  8028dc:	11400e44 	addi	r5,r2,57
  8028e0:	10c00e04 	addi	r3,r2,56
  8028e4:	294b883a 	add	r5,r5,r5
  8028e8:	003fbc06 	br	8027dc <__alt_mem_onchip_mem+0xff7fa7dc>
  8028ec:	84ff5926 	beq	r16,r19,802654 <__alt_mem_onchip_mem+0xff7fa654>
  8028f0:	00802074 	movhi	r2,129
  8028f4:	108cf604 	addi	r2,r2,13272
  8028f8:	14000217 	ldw	r16,8(r2)
  8028fc:	00bfff04 	movi	r2,-4
  802900:	80c00117 	ldw	r3,4(r16)
  802904:	1886703a 	and	r3,r3,r2
  802908:	003f9106 	br	802750 <__alt_mem_onchip_mem+0xff7fa750>
  80290c:	60800217 	ldw	r2,8(r12)
  802910:	213fffc4 	addi	r4,r4,-1
  802914:	1300651e 	bne	r2,r12,802aac <_malloc_r+0x7f4>
  802918:	208000cc 	andi	r2,r4,3
  80291c:	633ffe04 	addi	r12,r12,-8
  802920:	103ffa1e 	bne	r2,zero,80290c <__alt_mem_onchip_mem+0xff7fa90c>
  802924:	98800117 	ldw	r2,4(r19)
  802928:	0146303a 	nor	r3,zero,r5
  80292c:	1884703a 	and	r2,r3,r2
  802930:	98800115 	stw	r2,4(r19)
  802934:	294b883a 	add	r5,r5,r5
  802938:	117f2836 	bltu	r2,r5,8025dc <__alt_mem_onchip_mem+0xff7fa5dc>
  80293c:	283f2726 	beq	r5,zero,8025dc <__alt_mem_onchip_mem+0xff7fa5dc>
  802940:	2886703a 	and	r3,r5,r2
  802944:	5809883a 	mov	r4,r11
  802948:	183ec31e 	bne	r3,zero,802458 <__alt_mem_onchip_mem+0xff7fa458>
  80294c:	294b883a 	add	r5,r5,r5
  802950:	2886703a 	and	r3,r5,r2
  802954:	21000104 	addi	r4,r4,4
  802958:	183ffc26 	beq	r3,zero,80294c <__alt_mem_onchip_mem+0xff7fa94c>
  80295c:	003ebe06 	br	802458 <__alt_mem_onchip_mem+0xff7fa458>
  802960:	00c05504 	movi	r3,340
  802964:	18801236 	bltu	r3,r2,8029b0 <_malloc_r+0x6f8>
  802968:	8804d3fa 	srli	r2,r17,15
  80296c:	12001e04 	addi	r8,r2,120
  802970:	11c01dc4 	addi	r7,r2,119
  802974:	4209883a 	add	r4,r8,r8
  802978:	003e6d06 	br	802330 <__alt_mem_onchip_mem+0xff7fa330>
  80297c:	00c40004 	movi	r3,4096
  802980:	003f4606 	br	80269c <__alt_mem_onchip_mem+0xff7fa69c>
  802984:	00800044 	movi	r2,1
  802988:	a0800115 	stw	r2,4(r20)
  80298c:	003f7406 	br	802760 <__alt_mem_onchip_mem+0xff7fa760>
  802990:	1805d0ba 	srai	r2,r3,2
  802994:	01c00044 	movi	r7,1
  802998:	30c00117 	ldw	r3,4(r6)
  80299c:	388e983a 	sll	r7,r7,r2
  8029a0:	2805883a 	mov	r2,r5
  8029a4:	38c6b03a 	or	r3,r7,r3
  8029a8:	30c00115 	stw	r3,4(r6)
  8029ac:	003f9b06 	br	80281c <__alt_mem_onchip_mem+0xff7fa81c>
  8029b0:	00c15504 	movi	r3,1364
  8029b4:	18801a36 	bltu	r3,r2,802a20 <_malloc_r+0x768>
  8029b8:	8804d4ba 	srli	r2,r17,18
  8029bc:	12001f44 	addi	r8,r2,125
  8029c0:	11c01f04 	addi	r7,r2,124
  8029c4:	4209883a 	add	r4,r8,r8
  8029c8:	003e5906 	br	802330 <__alt_mem_onchip_mem+0xff7fa330>
  8029cc:	ad400404 	addi	r21,r21,16
  8029d0:	003f1706 	br	802630 <__alt_mem_onchip_mem+0xff7fa630>
  8029d4:	00c01504 	movi	r3,84
  8029d8:	18802336 	bltu	r3,r2,802a68 <_malloc_r+0x7b0>
  8029dc:	3804d33a 	srli	r2,r7,12
  8029e0:	11401bc4 	addi	r5,r2,111
  8029e4:	10c01b84 	addi	r3,r2,110
  8029e8:	294b883a 	add	r5,r5,r5
  8029ec:	003f7b06 	br	8027dc <__alt_mem_onchip_mem+0xff7fa7dc>
  8029f0:	9c000217 	ldw	r16,8(r19)
  8029f4:	00bfff04 	movi	r2,-4
  8029f8:	80c00117 	ldw	r3,4(r16)
  8029fc:	1886703a 	and	r3,r3,r2
  802a00:	003f5306 	br	802750 <__alt_mem_onchip_mem+0xff7fa750>
  802a04:	3083ffcc 	andi	r2,r6,4095
  802a08:	103f181e 	bne	r2,zero,80266c <__alt_mem_onchip_mem+0xff7fa66c>
  802a0c:	99000217 	ldw	r4,8(r19)
  802a10:	b545883a 	add	r2,r22,r21
  802a14:	10800054 	ori	r2,r2,1
  802a18:	20800115 	stw	r2,4(r4)
  802a1c:	003f3e06 	br	802718 <__alt_mem_onchip_mem+0xff7fa718>
  802a20:	01003f84 	movi	r4,254
  802a24:	02001fc4 	movi	r8,127
  802a28:	01c01f84 	movi	r7,126
  802a2c:	003e4006 	br	802330 <__alt_mem_onchip_mem+0xff7fa330>
  802a30:	00802074 	movhi	r2,129
  802a34:	10931304 	addi	r2,r2,19532
  802a38:	15000015 	stw	r20,0(r2)
  802a3c:	003f1106 	br	802684 <__alt_mem_onchip_mem+0xff7fa684>
  802a40:	00800044 	movi	r2,1
  802a44:	002b883a 	mov	r21,zero
  802a48:	003f1f06 	br	8026c8 <__alt_mem_onchip_mem+0xff7fa6c8>
  802a4c:	81400204 	addi	r5,r16,8
  802a50:	9009883a 	mov	r4,r18
  802a54:	08075f00 	call	8075f0 <_free_r>
  802a58:	00802074 	movhi	r2,129
  802a5c:	109a8004 	addi	r2,r2,27136
  802a60:	10c00017 	ldw	r3,0(r2)
  802a64:	003f2c06 	br	802718 <__alt_mem_onchip_mem+0xff7fa718>
  802a68:	00c05504 	movi	r3,340
  802a6c:	18800536 	bltu	r3,r2,802a84 <_malloc_r+0x7cc>
  802a70:	3804d3fa 	srli	r2,r7,15
  802a74:	11401e04 	addi	r5,r2,120
  802a78:	10c01dc4 	addi	r3,r2,119
  802a7c:	294b883a 	add	r5,r5,r5
  802a80:	003f5606 	br	8027dc <__alt_mem_onchip_mem+0xff7fa7dc>
  802a84:	00c15504 	movi	r3,1364
  802a88:	18800536 	bltu	r3,r2,802aa0 <_malloc_r+0x7e8>
  802a8c:	3804d4ba 	srli	r2,r7,18
  802a90:	11401f44 	addi	r5,r2,125
  802a94:	10c01f04 	addi	r3,r2,124
  802a98:	294b883a 	add	r5,r5,r5
  802a9c:	003f4f06 	br	8027dc <__alt_mem_onchip_mem+0xff7fa7dc>
  802aa0:	01403f84 	movi	r5,254
  802aa4:	00c01f84 	movi	r3,126
  802aa8:	003f4c06 	br	8027dc <__alt_mem_onchip_mem+0xff7fa7dc>
  802aac:	98800117 	ldw	r2,4(r19)
  802ab0:	003fa006 	br	802934 <__alt_mem_onchip_mem+0xff7fa934>
  802ab4:	8808d0fa 	srli	r4,r17,3
  802ab8:	20800044 	addi	r2,r4,1
  802abc:	1085883a 	add	r2,r2,r2
  802ac0:	003e9006 	br	802504 <__alt_mem_onchip_mem+0xff7fa504>

00802ac4 <memset>:
  802ac4:	20c000cc 	andi	r3,r4,3
  802ac8:	2005883a 	mov	r2,r4
  802acc:	18004426 	beq	r3,zero,802be0 <memset+0x11c>
  802ad0:	31ffffc4 	addi	r7,r6,-1
  802ad4:	30004026 	beq	r6,zero,802bd8 <memset+0x114>
  802ad8:	2813883a 	mov	r9,r5
  802adc:	200d883a 	mov	r6,r4
  802ae0:	2007883a 	mov	r3,r4
  802ae4:	00000406 	br	802af8 <memset+0x34>
  802ae8:	3a3fffc4 	addi	r8,r7,-1
  802aec:	31800044 	addi	r6,r6,1
  802af0:	38003926 	beq	r7,zero,802bd8 <memset+0x114>
  802af4:	400f883a 	mov	r7,r8
  802af8:	18c00044 	addi	r3,r3,1
  802afc:	32400005 	stb	r9,0(r6)
  802b00:	1a0000cc 	andi	r8,r3,3
  802b04:	403ff81e 	bne	r8,zero,802ae8 <__alt_mem_onchip_mem+0xff7faae8>
  802b08:	010000c4 	movi	r4,3
  802b0c:	21c02d2e 	bgeu	r4,r7,802bc4 <memset+0x100>
  802b10:	29003fcc 	andi	r4,r5,255
  802b14:	200c923a 	slli	r6,r4,8
  802b18:	3108b03a 	or	r4,r6,r4
  802b1c:	200c943a 	slli	r6,r4,16
  802b20:	218cb03a 	or	r6,r4,r6
  802b24:	010003c4 	movi	r4,15
  802b28:	21c0182e 	bgeu	r4,r7,802b8c <memset+0xc8>
  802b2c:	3b3ffc04 	addi	r12,r7,-16
  802b30:	6018d13a 	srli	r12,r12,4
  802b34:	1a000104 	addi	r8,r3,4
  802b38:	1ac00204 	addi	r11,r3,8
  802b3c:	6008913a 	slli	r4,r12,4
  802b40:	1a800304 	addi	r10,r3,12
  802b44:	1813883a 	mov	r9,r3
  802b48:	21000504 	addi	r4,r4,20
  802b4c:	1909883a 	add	r4,r3,r4
  802b50:	49800015 	stw	r6,0(r9)
  802b54:	41800015 	stw	r6,0(r8)
  802b58:	59800015 	stw	r6,0(r11)
  802b5c:	51800015 	stw	r6,0(r10)
  802b60:	42000404 	addi	r8,r8,16
  802b64:	4a400404 	addi	r9,r9,16
  802b68:	5ac00404 	addi	r11,r11,16
  802b6c:	52800404 	addi	r10,r10,16
  802b70:	413ff71e 	bne	r8,r4,802b50 <__alt_mem_onchip_mem+0xff7fab50>
  802b74:	63000044 	addi	r12,r12,1
  802b78:	6018913a 	slli	r12,r12,4
  802b7c:	39c003cc 	andi	r7,r7,15
  802b80:	010000c4 	movi	r4,3
  802b84:	1b07883a 	add	r3,r3,r12
  802b88:	21c00e2e 	bgeu	r4,r7,802bc4 <memset+0x100>
  802b8c:	1813883a 	mov	r9,r3
  802b90:	3811883a 	mov	r8,r7
  802b94:	010000c4 	movi	r4,3
  802b98:	49800015 	stw	r6,0(r9)
  802b9c:	423fff04 	addi	r8,r8,-4
  802ba0:	4a400104 	addi	r9,r9,4
  802ba4:	223ffc36 	bltu	r4,r8,802b98 <__alt_mem_onchip_mem+0xff7fab98>
  802ba8:	393fff04 	addi	r4,r7,-4
  802bac:	2008d0ba 	srli	r4,r4,2
  802bb0:	39c000cc 	andi	r7,r7,3
  802bb4:	21000044 	addi	r4,r4,1
  802bb8:	2109883a 	add	r4,r4,r4
  802bbc:	2109883a 	add	r4,r4,r4
  802bc0:	1907883a 	add	r3,r3,r4
  802bc4:	38000526 	beq	r7,zero,802bdc <memset+0x118>
  802bc8:	19cf883a 	add	r7,r3,r7
  802bcc:	19400005 	stb	r5,0(r3)
  802bd0:	18c00044 	addi	r3,r3,1
  802bd4:	38fffd1e 	bne	r7,r3,802bcc <__alt_mem_onchip_mem+0xff7fabcc>
  802bd8:	f800283a 	ret
  802bdc:	f800283a 	ret
  802be0:	2007883a 	mov	r3,r4
  802be4:	300f883a 	mov	r7,r6
  802be8:	003fc706 	br	802b08 <__alt_mem_onchip_mem+0xff7fab08>

00802bec <_open_r>:
  802bec:	defffd04 	addi	sp,sp,-12
  802bf0:	2805883a 	mov	r2,r5
  802bf4:	dc000015 	stw	r16,0(sp)
  802bf8:	04002074 	movhi	r16,129
  802bfc:	dc400115 	stw	r17,4(sp)
  802c00:	300b883a 	mov	r5,r6
  802c04:	841a7204 	addi	r16,r16,27080
  802c08:	2023883a 	mov	r17,r4
  802c0c:	380d883a 	mov	r6,r7
  802c10:	1009883a 	mov	r4,r2
  802c14:	dfc00215 	stw	ra,8(sp)
  802c18:	80000015 	stw	zero,0(r16)
  802c1c:	080f0000 	call	80f000 <open>
  802c20:	00ffffc4 	movi	r3,-1
  802c24:	10c00526 	beq	r2,r3,802c3c <_open_r+0x50>
  802c28:	dfc00217 	ldw	ra,8(sp)
  802c2c:	dc400117 	ldw	r17,4(sp)
  802c30:	dc000017 	ldw	r16,0(sp)
  802c34:	dec00304 	addi	sp,sp,12
  802c38:	f800283a 	ret
  802c3c:	80c00017 	ldw	r3,0(r16)
  802c40:	183ff926 	beq	r3,zero,802c28 <__alt_mem_onchip_mem+0xff7fac28>
  802c44:	88c00015 	stw	r3,0(r17)
  802c48:	003ff706 	br	802c28 <__alt_mem_onchip_mem+0xff7fac28>

00802c4c <_putc_r>:
  802c4c:	defffc04 	addi	sp,sp,-16
  802c50:	dc000215 	stw	r16,8(sp)
  802c54:	dfc00315 	stw	ra,12(sp)
  802c58:	2021883a 	mov	r16,r4
  802c5c:	20000226 	beq	r4,zero,802c68 <_putc_r+0x1c>
  802c60:	20800e17 	ldw	r2,56(r4)
  802c64:	10001b26 	beq	r2,zero,802cd4 <_putc_r+0x88>
  802c68:	30800217 	ldw	r2,8(r6)
  802c6c:	10bfffc4 	addi	r2,r2,-1
  802c70:	30800215 	stw	r2,8(r6)
  802c74:	10000a16 	blt	r2,zero,802ca0 <_putc_r+0x54>
  802c78:	30800017 	ldw	r2,0(r6)
  802c7c:	11400005 	stb	r5,0(r2)
  802c80:	30800017 	ldw	r2,0(r6)
  802c84:	10c00044 	addi	r3,r2,1
  802c88:	30c00015 	stw	r3,0(r6)
  802c8c:	10800003 	ldbu	r2,0(r2)
  802c90:	dfc00317 	ldw	ra,12(sp)
  802c94:	dc000217 	ldw	r16,8(sp)
  802c98:	dec00404 	addi	sp,sp,16
  802c9c:	f800283a 	ret
  802ca0:	30c00617 	ldw	r3,24(r6)
  802ca4:	10c00616 	blt	r2,r3,802cc0 <_putc_r+0x74>
  802ca8:	30800017 	ldw	r2,0(r6)
  802cac:	00c00284 	movi	r3,10
  802cb0:	11400005 	stb	r5,0(r2)
  802cb4:	30800017 	ldw	r2,0(r6)
  802cb8:	11400003 	ldbu	r5,0(r2)
  802cbc:	28fff11e 	bne	r5,r3,802c84 <__alt_mem_onchip_mem+0xff7fac84>
  802cc0:	8009883a 	mov	r4,r16
  802cc4:	dfc00317 	ldw	ra,12(sp)
  802cc8:	dc000217 	ldw	r16,8(sp)
  802ccc:	dec00404 	addi	sp,sp,16
  802cd0:	080548c1 	jmpi	80548c <__swbuf_r>
  802cd4:	d9400015 	stw	r5,0(sp)
  802cd8:	d9800115 	stw	r6,4(sp)
  802cdc:	08017500 	call	801750 <__sinit>
  802ce0:	d9800117 	ldw	r6,4(sp)
  802ce4:	d9400017 	ldw	r5,0(sp)
  802ce8:	003fdf06 	br	802c68 <__alt_mem_onchip_mem+0xff7fac68>

00802cec <putc>:
  802cec:	00802074 	movhi	r2,129
  802cf0:	defffc04 	addi	sp,sp,-16
  802cf4:	10931204 	addi	r2,r2,19528
  802cf8:	dc000115 	stw	r16,4(sp)
  802cfc:	14000017 	ldw	r16,0(r2)
  802d00:	dc400215 	stw	r17,8(sp)
  802d04:	dfc00315 	stw	ra,12(sp)
  802d08:	2023883a 	mov	r17,r4
  802d0c:	80000226 	beq	r16,zero,802d18 <putc+0x2c>
  802d10:	80800e17 	ldw	r2,56(r16)
  802d14:	10001a26 	beq	r2,zero,802d80 <putc+0x94>
  802d18:	28800217 	ldw	r2,8(r5)
  802d1c:	10bfffc4 	addi	r2,r2,-1
  802d20:	28800215 	stw	r2,8(r5)
  802d24:	10000b16 	blt	r2,zero,802d54 <putc+0x68>
  802d28:	28800017 	ldw	r2,0(r5)
  802d2c:	14400005 	stb	r17,0(r2)
  802d30:	28800017 	ldw	r2,0(r5)
  802d34:	10c00044 	addi	r3,r2,1
  802d38:	28c00015 	stw	r3,0(r5)
  802d3c:	10800003 	ldbu	r2,0(r2)
  802d40:	dfc00317 	ldw	ra,12(sp)
  802d44:	dc400217 	ldw	r17,8(sp)
  802d48:	dc000117 	ldw	r16,4(sp)
  802d4c:	dec00404 	addi	sp,sp,16
  802d50:	f800283a 	ret
  802d54:	28c00617 	ldw	r3,24(r5)
  802d58:	10c00e16 	blt	r2,r3,802d94 <putc+0xa8>
  802d5c:	28800017 	ldw	r2,0(r5)
  802d60:	01000284 	movi	r4,10
  802d64:	14400005 	stb	r17,0(r2)
  802d68:	28800017 	ldw	r2,0(r5)
  802d6c:	10c00003 	ldbu	r3,0(r2)
  802d70:	193ff01e 	bne	r3,r4,802d34 <__alt_mem_onchip_mem+0xff7fad34>
  802d74:	280d883a 	mov	r6,r5
  802d78:	180b883a 	mov	r5,r3
  802d7c:	00000706 	br	802d9c <putc+0xb0>
  802d80:	8009883a 	mov	r4,r16
  802d84:	d9400015 	stw	r5,0(sp)
  802d88:	08017500 	call	801750 <__sinit>
  802d8c:	d9400017 	ldw	r5,0(sp)
  802d90:	003fe106 	br	802d18 <__alt_mem_onchip_mem+0xff7fad18>
  802d94:	280d883a 	mov	r6,r5
  802d98:	880b883a 	mov	r5,r17
  802d9c:	8009883a 	mov	r4,r16
  802da0:	dfc00317 	ldw	ra,12(sp)
  802da4:	dc400217 	ldw	r17,8(sp)
  802da8:	dc000117 	ldw	r16,4(sp)
  802dac:	dec00404 	addi	sp,sp,16
  802db0:	080548c1 	jmpi	80548c <__swbuf_r>

00802db4 <lflush>:
  802db4:	2080030b 	ldhu	r2,12(r4)
  802db8:	00c00244 	movi	r3,9
  802dbc:	1080024c 	andi	r2,r2,9
  802dc0:	10c00226 	beq	r2,r3,802dcc <lflush+0x18>
  802dc4:	0005883a 	mov	r2,zero
  802dc8:	f800283a 	ret
  802dcc:	08073f01 	jmpi	8073f0 <fflush>

00802dd0 <__srefill_r>:
  802dd0:	defffc04 	addi	sp,sp,-16
  802dd4:	dc400115 	stw	r17,4(sp)
  802dd8:	dc000015 	stw	r16,0(sp)
  802ddc:	dfc00315 	stw	ra,12(sp)
  802de0:	dc800215 	stw	r18,8(sp)
  802de4:	2023883a 	mov	r17,r4
  802de8:	2821883a 	mov	r16,r5
  802dec:	20000226 	beq	r4,zero,802df8 <__srefill_r+0x28>
  802df0:	20800e17 	ldw	r2,56(r4)
  802df4:	10003c26 	beq	r2,zero,802ee8 <__srefill_r+0x118>
  802df8:	80c0030b 	ldhu	r3,12(r16)
  802dfc:	1908000c 	andi	r4,r3,8192
  802e00:	1805883a 	mov	r2,r3
  802e04:	2000071e 	bne	r4,zero,802e24 <__srefill_r+0x54>
  802e08:	81001917 	ldw	r4,100(r16)
  802e0c:	18880014 	ori	r2,r3,8192
  802e10:	00f7ffc4 	movi	r3,-8193
  802e14:	20c8703a 	and	r4,r4,r3
  802e18:	8080030d 	sth	r2,12(r16)
  802e1c:	1007883a 	mov	r3,r2
  802e20:	81001915 	stw	r4,100(r16)
  802e24:	80000115 	stw	zero,4(r16)
  802e28:	1100080c 	andi	r4,r2,32
  802e2c:	2000571e 	bne	r4,zero,802f8c <__srefill_r+0x1bc>
  802e30:	1100010c 	andi	r4,r2,4
  802e34:	20001f26 	beq	r4,zero,802eb4 <__srefill_r+0xe4>
  802e38:	81400c17 	ldw	r5,48(r16)
  802e3c:	28000826 	beq	r5,zero,802e60 <__srefill_r+0x90>
  802e40:	80801004 	addi	r2,r16,64
  802e44:	28800226 	beq	r5,r2,802e50 <__srefill_r+0x80>
  802e48:	8809883a 	mov	r4,r17
  802e4c:	08075f00 	call	8075f0 <_free_r>
  802e50:	80800f17 	ldw	r2,60(r16)
  802e54:	80000c15 	stw	zero,48(r16)
  802e58:	80800115 	stw	r2,4(r16)
  802e5c:	1000391e 	bne	r2,zero,802f44 <__srefill_r+0x174>
  802e60:	80800417 	ldw	r2,16(r16)
  802e64:	10004b26 	beq	r2,zero,802f94 <__srefill_r+0x1c4>
  802e68:	8480030b 	ldhu	r18,12(r16)
  802e6c:	908000cc 	andi	r2,r18,3
  802e70:	10001f1e 	bne	r2,zero,802ef0 <__srefill_r+0x120>
  802e74:	81800417 	ldw	r6,16(r16)
  802e78:	80800817 	ldw	r2,32(r16)
  802e7c:	81c00517 	ldw	r7,20(r16)
  802e80:	81400717 	ldw	r5,28(r16)
  802e84:	81800015 	stw	r6,0(r16)
  802e88:	8809883a 	mov	r4,r17
  802e8c:	103ee83a 	callr	r2
  802e90:	80800115 	stw	r2,4(r16)
  802e94:	00800e0e 	bge	zero,r2,802ed0 <__srefill_r+0x100>
  802e98:	0005883a 	mov	r2,zero
  802e9c:	dfc00317 	ldw	ra,12(sp)
  802ea0:	dc800217 	ldw	r18,8(sp)
  802ea4:	dc400117 	ldw	r17,4(sp)
  802ea8:	dc000017 	ldw	r16,0(sp)
  802eac:	dec00404 	addi	sp,sp,16
  802eb0:	f800283a 	ret
  802eb4:	1100040c 	andi	r4,r2,16
  802eb8:	20003026 	beq	r4,zero,802f7c <__srefill_r+0x1ac>
  802ebc:	1080020c 	andi	r2,r2,8
  802ec0:	1000241e 	bne	r2,zero,802f54 <__srefill_r+0x184>
  802ec4:	18c00114 	ori	r3,r3,4
  802ec8:	80c0030d 	sth	r3,12(r16)
  802ecc:	003fe406 	br	802e60 <__alt_mem_onchip_mem+0xff7fae60>
  802ed0:	80c0030b 	ldhu	r3,12(r16)
  802ed4:	1000161e 	bne	r2,zero,802f30 <__srefill_r+0x160>
  802ed8:	18c00814 	ori	r3,r3,32
  802edc:	00bfffc4 	movi	r2,-1
  802ee0:	80c0030d 	sth	r3,12(r16)
  802ee4:	003fed06 	br	802e9c <__alt_mem_onchip_mem+0xff7fae9c>
  802ee8:	08017500 	call	801750 <__sinit>
  802eec:	003fc206 	br	802df8 <__alt_mem_onchip_mem+0xff7fadf8>
  802ef0:	00802074 	movhi	r2,129
  802ef4:	10931104 	addi	r2,r2,19524
  802ef8:	11000017 	ldw	r4,0(r2)
  802efc:	01402034 	movhi	r5,128
  802f00:	00800044 	movi	r2,1
  802f04:	294b6d04 	addi	r5,r5,11700
  802f08:	8080030d 	sth	r2,12(r16)
  802f0c:	0801e740 	call	801e74 <_fwalk>
  802f10:	00800244 	movi	r2,9
  802f14:	8480030d 	sth	r18,12(r16)
  802f18:	9480024c 	andi	r18,r18,9
  802f1c:	90bfd51e 	bne	r18,r2,802e74 <__alt_mem_onchip_mem+0xff7fae74>
  802f20:	800b883a 	mov	r5,r16
  802f24:	8809883a 	mov	r4,r17
  802f28:	08071780 	call	807178 <__sflush_r>
  802f2c:	003fd106 	br	802e74 <__alt_mem_onchip_mem+0xff7fae74>
  802f30:	18c01014 	ori	r3,r3,64
  802f34:	80000115 	stw	zero,4(r16)
  802f38:	00bfffc4 	movi	r2,-1
  802f3c:	80c0030d 	sth	r3,12(r16)
  802f40:	003fd606 	br	802e9c <__alt_mem_onchip_mem+0xff7fae9c>
  802f44:	80c00e17 	ldw	r3,56(r16)
  802f48:	0005883a 	mov	r2,zero
  802f4c:	80c00015 	stw	r3,0(r16)
  802f50:	003fd206 	br	802e9c <__alt_mem_onchip_mem+0xff7fae9c>
  802f54:	800b883a 	mov	r5,r16
  802f58:	8809883a 	mov	r4,r17
  802f5c:	08073940 	call	807394 <_fflush_r>
  802f60:	10000a1e 	bne	r2,zero,802f8c <__srefill_r+0x1bc>
  802f64:	8080030b 	ldhu	r2,12(r16)
  802f68:	00fffdc4 	movi	r3,-9
  802f6c:	80000215 	stw	zero,8(r16)
  802f70:	1886703a 	and	r3,r3,r2
  802f74:	80000615 	stw	zero,24(r16)
  802f78:	003fd206 	br	802ec4 <__alt_mem_onchip_mem+0xff7faec4>
  802f7c:	00800244 	movi	r2,9
  802f80:	88800015 	stw	r2,0(r17)
  802f84:	18c01014 	ori	r3,r3,64
  802f88:	80c0030d 	sth	r3,12(r16)
  802f8c:	00bfffc4 	movi	r2,-1
  802f90:	003fc206 	br	802e9c <__alt_mem_onchip_mem+0xff7fae9c>
  802f94:	800b883a 	mov	r5,r16
  802f98:	8809883a 	mov	r4,r17
  802f9c:	08020fc0 	call	8020fc <__smakebuf_r>
  802fa0:	003fb106 	br	802e68 <__alt_mem_onchip_mem+0xff7fae68>

00802fa4 <__srget_r>:
  802fa4:	defffd04 	addi	sp,sp,-12
  802fa8:	dc400115 	stw	r17,4(sp)
  802fac:	dc000015 	stw	r16,0(sp)
  802fb0:	dfc00215 	stw	ra,8(sp)
  802fb4:	2023883a 	mov	r17,r4
  802fb8:	2821883a 	mov	r16,r5
  802fbc:	20000226 	beq	r4,zero,802fc8 <__srget_r+0x24>
  802fc0:	20800e17 	ldw	r2,56(r4)
  802fc4:	10001026 	beq	r2,zero,803008 <__srget_r+0x64>
  802fc8:	800b883a 	mov	r5,r16
  802fcc:	8809883a 	mov	r4,r17
  802fd0:	0802dd00 	call	802dd0 <__srefill_r>
  802fd4:	10000e1e 	bne	r2,zero,803010 <__srget_r+0x6c>
  802fd8:	80c00017 	ldw	r3,0(r16)
  802fdc:	80800117 	ldw	r2,4(r16)
  802fe0:	19000044 	addi	r4,r3,1
  802fe4:	10bfffc4 	addi	r2,r2,-1
  802fe8:	80800115 	stw	r2,4(r16)
  802fec:	81000015 	stw	r4,0(r16)
  802ff0:	18800003 	ldbu	r2,0(r3)
  802ff4:	dfc00217 	ldw	ra,8(sp)
  802ff8:	dc400117 	ldw	r17,4(sp)
  802ffc:	dc000017 	ldw	r16,0(sp)
  803000:	dec00304 	addi	sp,sp,12
  803004:	f800283a 	ret
  803008:	08017500 	call	801750 <__sinit>
  80300c:	003fee06 	br	802fc8 <__alt_mem_onchip_mem+0xff7fafc8>
  803010:	00bfffc4 	movi	r2,-1
  803014:	003ff706 	br	802ff4 <__alt_mem_onchip_mem+0xff7faff4>

00803018 <__srget>:
  803018:	00802074 	movhi	r2,129
  80301c:	10931204 	addi	r2,r2,19528
  803020:	200b883a 	mov	r5,r4
  803024:	11000017 	ldw	r4,0(r2)
  803028:	0802fa41 	jmpi	802fa4 <__srget_r>

0080302c <_sbrk_r>:
  80302c:	defffd04 	addi	sp,sp,-12
  803030:	dc000015 	stw	r16,0(sp)
  803034:	04002074 	movhi	r16,129
  803038:	dc400115 	stw	r17,4(sp)
  80303c:	841a7204 	addi	r16,r16,27080
  803040:	2023883a 	mov	r17,r4
  803044:	2809883a 	mov	r4,r5
  803048:	dfc00215 	stw	ra,8(sp)
  80304c:	80000015 	stw	zero,0(r16)
  803050:	080f2f00 	call	80f2f0 <sbrk>
  803054:	00ffffc4 	movi	r3,-1
  803058:	10c00526 	beq	r2,r3,803070 <_sbrk_r+0x44>
  80305c:	dfc00217 	ldw	ra,8(sp)
  803060:	dc400117 	ldw	r17,4(sp)
  803064:	dc000017 	ldw	r16,0(sp)
  803068:	dec00304 	addi	sp,sp,12
  80306c:	f800283a 	ret
  803070:	80c00017 	ldw	r3,0(r16)
  803074:	183ff926 	beq	r3,zero,80305c <__alt_mem_onchip_mem+0xff7fb05c>
  803078:	88c00015 	stw	r3,0(r17)
  80307c:	003ff706 	br	80305c <__alt_mem_onchip_mem+0xff7fb05c>

00803080 <__sread>:
  803080:	defffe04 	addi	sp,sp,-8
  803084:	dc000015 	stw	r16,0(sp)
  803088:	2821883a 	mov	r16,r5
  80308c:	2940038f 	ldh	r5,14(r5)
  803090:	dfc00115 	stw	ra,4(sp)
  803094:	08092d00 	call	8092d0 <_read_r>
  803098:	10000716 	blt	r2,zero,8030b8 <__sread+0x38>
  80309c:	80c01417 	ldw	r3,80(r16)
  8030a0:	1887883a 	add	r3,r3,r2
  8030a4:	80c01415 	stw	r3,80(r16)
  8030a8:	dfc00117 	ldw	ra,4(sp)
  8030ac:	dc000017 	ldw	r16,0(sp)
  8030b0:	dec00204 	addi	sp,sp,8
  8030b4:	f800283a 	ret
  8030b8:	80c0030b 	ldhu	r3,12(r16)
  8030bc:	18fbffcc 	andi	r3,r3,61439
  8030c0:	80c0030d 	sth	r3,12(r16)
  8030c4:	dfc00117 	ldw	ra,4(sp)
  8030c8:	dc000017 	ldw	r16,0(sp)
  8030cc:	dec00204 	addi	sp,sp,8
  8030d0:	f800283a 	ret

008030d4 <__seofread>:
  8030d4:	0005883a 	mov	r2,zero
  8030d8:	f800283a 	ret

008030dc <__swrite>:
  8030dc:	2880030b 	ldhu	r2,12(r5)
  8030e0:	defffb04 	addi	sp,sp,-20
  8030e4:	dcc00315 	stw	r19,12(sp)
  8030e8:	dc800215 	stw	r18,8(sp)
  8030ec:	dc400115 	stw	r17,4(sp)
  8030f0:	dc000015 	stw	r16,0(sp)
  8030f4:	dfc00415 	stw	ra,16(sp)
  8030f8:	10c0400c 	andi	r3,r2,256
  8030fc:	2821883a 	mov	r16,r5
  803100:	2023883a 	mov	r17,r4
  803104:	3025883a 	mov	r18,r6
  803108:	3827883a 	mov	r19,r7
  80310c:	18000526 	beq	r3,zero,803124 <__swrite+0x48>
  803110:	2940038f 	ldh	r5,14(r5)
  803114:	01c00084 	movi	r7,2
  803118:	000d883a 	mov	r6,zero
  80311c:	0807eec0 	call	807eec <_lseek_r>
  803120:	8080030b 	ldhu	r2,12(r16)
  803124:	8140038f 	ldh	r5,14(r16)
  803128:	10bbffcc 	andi	r2,r2,61439
  80312c:	980f883a 	mov	r7,r19
  803130:	900d883a 	mov	r6,r18
  803134:	8809883a 	mov	r4,r17
  803138:	8080030d 	sth	r2,12(r16)
  80313c:	dfc00417 	ldw	ra,16(sp)
  803140:	dcc00317 	ldw	r19,12(sp)
  803144:	dc800217 	ldw	r18,8(sp)
  803148:	dc400117 	ldw	r17,4(sp)
  80314c:	dc000017 	ldw	r16,0(sp)
  803150:	dec00504 	addi	sp,sp,20
  803154:	08055e41 	jmpi	8055e4 <_write_r>

00803158 <__sseek>:
  803158:	defffe04 	addi	sp,sp,-8
  80315c:	dc000015 	stw	r16,0(sp)
  803160:	2821883a 	mov	r16,r5
  803164:	2940038f 	ldh	r5,14(r5)
  803168:	dfc00115 	stw	ra,4(sp)
  80316c:	0807eec0 	call	807eec <_lseek_r>
  803170:	00ffffc4 	movi	r3,-1
  803174:	10c00826 	beq	r2,r3,803198 <__sseek+0x40>
  803178:	80c0030b 	ldhu	r3,12(r16)
  80317c:	80801415 	stw	r2,80(r16)
  803180:	18c40014 	ori	r3,r3,4096
  803184:	80c0030d 	sth	r3,12(r16)
  803188:	dfc00117 	ldw	ra,4(sp)
  80318c:	dc000017 	ldw	r16,0(sp)
  803190:	dec00204 	addi	sp,sp,8
  803194:	f800283a 	ret
  803198:	80c0030b 	ldhu	r3,12(r16)
  80319c:	18fbffcc 	andi	r3,r3,61439
  8031a0:	80c0030d 	sth	r3,12(r16)
  8031a4:	dfc00117 	ldw	ra,4(sp)
  8031a8:	dc000017 	ldw	r16,0(sp)
  8031ac:	dec00204 	addi	sp,sp,8
  8031b0:	f800283a 	ret

008031b4 <__sclose>:
  8031b4:	2940038f 	ldh	r5,14(r5)
  8031b8:	08057981 	jmpi	805798 <_close_r>

008031bc <___vfprintf_internal_r>:
  8031bc:	deffb804 	addi	sp,sp,-288
  8031c0:	dfc04715 	stw	ra,284(sp)
  8031c4:	ddc04515 	stw	r23,276(sp)
  8031c8:	dd404315 	stw	r21,268(sp)
  8031cc:	d9002c15 	stw	r4,176(sp)
  8031d0:	282f883a 	mov	r23,r5
  8031d4:	302b883a 	mov	r21,r6
  8031d8:	d9c02d15 	stw	r7,180(sp)
  8031dc:	df004615 	stw	fp,280(sp)
  8031e0:	dd804415 	stw	r22,272(sp)
  8031e4:	dd004215 	stw	r20,264(sp)
  8031e8:	dcc04115 	stw	r19,260(sp)
  8031ec:	dc804015 	stw	r18,256(sp)
  8031f0:	dc403f15 	stw	r17,252(sp)
  8031f4:	dc003e15 	stw	r16,248(sp)
  8031f8:	0807ebc0 	call	807ebc <_localeconv_r>
  8031fc:	10800017 	ldw	r2,0(r2)
  803200:	1009883a 	mov	r4,r2
  803204:	d8803415 	stw	r2,208(sp)
  803208:	08099e40 	call	8099e4 <strlen>
  80320c:	d8803715 	stw	r2,220(sp)
  803210:	d8802c17 	ldw	r2,176(sp)
  803214:	10000226 	beq	r2,zero,803220 <___vfprintf_internal_r+0x64>
  803218:	10800e17 	ldw	r2,56(r2)
  80321c:	1000f926 	beq	r2,zero,803604 <___vfprintf_internal_r+0x448>
  803220:	b880030b 	ldhu	r2,12(r23)
  803224:	10c8000c 	andi	r3,r2,8192
  803228:	1800061e 	bne	r3,zero,803244 <___vfprintf_internal_r+0x88>
  80322c:	b9001917 	ldw	r4,100(r23)
  803230:	00f7ffc4 	movi	r3,-8193
  803234:	10880014 	ori	r2,r2,8192
  803238:	20c6703a 	and	r3,r4,r3
  80323c:	b880030d 	sth	r2,12(r23)
  803240:	b8c01915 	stw	r3,100(r23)
  803244:	10c0020c 	andi	r3,r2,8
  803248:	1800c126 	beq	r3,zero,803550 <___vfprintf_internal_r+0x394>
  80324c:	b8c00417 	ldw	r3,16(r23)
  803250:	1800bf26 	beq	r3,zero,803550 <___vfprintf_internal_r+0x394>
  803254:	1080068c 	andi	r2,r2,26
  803258:	00c00284 	movi	r3,10
  80325c:	10c0c426 	beq	r2,r3,803570 <___vfprintf_internal_r+0x3b4>
  803260:	d8c00404 	addi	r3,sp,16
  803264:	05002074 	movhi	r20,129
  803268:	d9001e04 	addi	r4,sp,120
  80326c:	a50a9584 	addi	r20,r20,10838
  803270:	d8c01e15 	stw	r3,120(sp)
  803274:	d8002015 	stw	zero,128(sp)
  803278:	d8001f15 	stw	zero,124(sp)
  80327c:	d8003315 	stw	zero,204(sp)
  803280:	d8003615 	stw	zero,216(sp)
  803284:	d8003815 	stw	zero,224(sp)
  803288:	1811883a 	mov	r8,r3
  80328c:	d8003915 	stw	zero,228(sp)
  803290:	d8003a15 	stw	zero,232(sp)
  803294:	d8002f15 	stw	zero,188(sp)
  803298:	d9002815 	stw	r4,160(sp)
  80329c:	a8800007 	ldb	r2,0(r21)
  8032a0:	10027b26 	beq	r2,zero,803c90 <___vfprintf_internal_r+0xad4>
  8032a4:	00c00944 	movi	r3,37
  8032a8:	a821883a 	mov	r16,r21
  8032ac:	10c0021e 	bne	r2,r3,8032b8 <___vfprintf_internal_r+0xfc>
  8032b0:	00001406 	br	803304 <___vfprintf_internal_r+0x148>
  8032b4:	10c00326 	beq	r2,r3,8032c4 <___vfprintf_internal_r+0x108>
  8032b8:	84000044 	addi	r16,r16,1
  8032bc:	80800007 	ldb	r2,0(r16)
  8032c0:	103ffc1e 	bne	r2,zero,8032b4 <__alt_mem_onchip_mem+0xff7fb2b4>
  8032c4:	8563c83a 	sub	r17,r16,r21
  8032c8:	88000e26 	beq	r17,zero,803304 <___vfprintf_internal_r+0x148>
  8032cc:	d8c02017 	ldw	r3,128(sp)
  8032d0:	d8801f17 	ldw	r2,124(sp)
  8032d4:	45400015 	stw	r21,0(r8)
  8032d8:	1c47883a 	add	r3,r3,r17
  8032dc:	10800044 	addi	r2,r2,1
  8032e0:	d8c02015 	stw	r3,128(sp)
  8032e4:	44400115 	stw	r17,4(r8)
  8032e8:	d8801f15 	stw	r2,124(sp)
  8032ec:	00c001c4 	movi	r3,7
  8032f0:	1880a716 	blt	r3,r2,803590 <___vfprintf_internal_r+0x3d4>
  8032f4:	42000204 	addi	r8,r8,8
  8032f8:	d9402f17 	ldw	r5,188(sp)
  8032fc:	2c4b883a 	add	r5,r5,r17
  803300:	d9402f15 	stw	r5,188(sp)
  803304:	80800007 	ldb	r2,0(r16)
  803308:	1000a826 	beq	r2,zero,8035ac <___vfprintf_internal_r+0x3f0>
  80330c:	84400047 	ldb	r17,1(r16)
  803310:	00bfffc4 	movi	r2,-1
  803314:	85400044 	addi	r21,r16,1
  803318:	d8002785 	stb	zero,158(sp)
  80331c:	0007883a 	mov	r3,zero
  803320:	000f883a 	mov	r7,zero
  803324:	d8802915 	stw	r2,164(sp)
  803328:	d8003115 	stw	zero,196(sp)
  80332c:	0025883a 	mov	r18,zero
  803330:	01401604 	movi	r5,88
  803334:	01800244 	movi	r6,9
  803338:	02800a84 	movi	r10,42
  80333c:	02401b04 	movi	r9,108
  803340:	ad400044 	addi	r21,r21,1
  803344:	88bff804 	addi	r2,r17,-32
  803348:	28830436 	bltu	r5,r2,803f5c <___vfprintf_internal_r+0xda0>
  80334c:	100490ba 	slli	r2,r2,2
  803350:	01002034 	movhi	r4,128
  803354:	210cd904 	addi	r4,r4,13156
  803358:	1105883a 	add	r2,r2,r4
  80335c:	10800017 	ldw	r2,0(r2)
  803360:	1000683a 	jmp	r2
  803364:	00803e7c 	xorhi	r2,zero,249
  803368:	00803f5c 	xori	r2,zero,253
  80336c:	00803f5c 	xori	r2,zero,253
  803370:	00803e9c 	xori	r2,zero,250
  803374:	00803f5c 	xori	r2,zero,253
  803378:	00803f5c 	xori	r2,zero,253
  80337c:	00803f5c 	xori	r2,zero,253
  803380:	00803f5c 	xori	r2,zero,253
  803384:	00803f5c 	xori	r2,zero,253
  803388:	00803f5c 	xori	r2,zero,253
  80338c:	00803610 	cmplti	r2,zero,216
  803390:	00803db8 	rdprs	r2,zero,246
  803394:	00803f5c 	xori	r2,zero,253
  803398:	008034d8 	cmpnei	r2,zero,211
  80339c:	00803638 	rdprs	r2,zero,216
  8033a0:	00803f5c 	xori	r2,zero,253
  8033a4:	00803678 	rdprs	r2,zero,217
  8033a8:	00803684 	movi	r2,218
  8033ac:	00803684 	movi	r2,218
  8033b0:	00803684 	movi	r2,218
  8033b4:	00803684 	movi	r2,218
  8033b8:	00803684 	movi	r2,218
  8033bc:	00803684 	movi	r2,218
  8033c0:	00803684 	movi	r2,218
  8033c4:	00803684 	movi	r2,218
  8033c8:	00803684 	movi	r2,218
  8033cc:	00803f5c 	xori	r2,zero,253
  8033d0:	00803f5c 	xori	r2,zero,253
  8033d4:	00803f5c 	xori	r2,zero,253
  8033d8:	00803f5c 	xori	r2,zero,253
  8033dc:	00803f5c 	xori	r2,zero,253
  8033e0:	00803f5c 	xori	r2,zero,253
  8033e4:	00803f5c 	xori	r2,zero,253
  8033e8:	00803f5c 	xori	r2,zero,253
  8033ec:	00803f5c 	xori	r2,zero,253
  8033f0:	00803f5c 	xori	r2,zero,253
  8033f4:	008036b8 	rdprs	r2,zero,218
  8033f8:	00803774 	movhi	r2,221
  8033fc:	00803f5c 	xori	r2,zero,253
  803400:	00803774 	movhi	r2,221
  803404:	00803f5c 	xori	r2,zero,253
  803408:	00803f5c 	xori	r2,zero,253
  80340c:	00803f5c 	xori	r2,zero,253
  803410:	00803f5c 	xori	r2,zero,253
  803414:	00803814 	movui	r2,224
  803418:	00803f5c 	xori	r2,zero,253
  80341c:	00803f5c 	xori	r2,zero,253
  803420:	00803820 	cmpeqi	r2,zero,224
  803424:	00803f5c 	xori	r2,zero,253
  803428:	00803f5c 	xori	r2,zero,253
  80342c:	00803f5c 	xori	r2,zero,253
  803430:	00803f5c 	xori	r2,zero,253
  803434:	00803f5c 	xori	r2,zero,253
  803438:	00803c98 	cmpnei	r2,zero,242
  80343c:	00803f5c 	xori	r2,zero,253
  803440:	00803f5c 	xori	r2,zero,253
  803444:	00803cf8 	rdprs	r2,zero,243
  803448:	00803f5c 	xori	r2,zero,253
  80344c:	00803f5c 	xori	r2,zero,253
  803450:	00803f5c 	xori	r2,zero,253
  803454:	00803f5c 	xori	r2,zero,253
  803458:	00803f5c 	xori	r2,zero,253
  80345c:	00803f5c 	xori	r2,zero,253
  803460:	00803f5c 	xori	r2,zero,253
  803464:	00803f5c 	xori	r2,zero,253
  803468:	00803f5c 	xori	r2,zero,253
  80346c:	00803f5c 	xori	r2,zero,253
  803470:	00803f08 	cmpgei	r2,zero,252
  803474:	00803ea8 	cmpgeui	r2,zero,250
  803478:	00803774 	movhi	r2,221
  80347c:	00803774 	movhi	r2,221
  803480:	00803774 	movhi	r2,221
  803484:	00803eb8 	rdprs	r2,zero,250
  803488:	00803ea8 	cmpgeui	r2,zero,250
  80348c:	00803f5c 	xori	r2,zero,253
  803490:	00803f5c 	xori	r2,zero,253
  803494:	00803ec4 	movi	r2,251
  803498:	00803f5c 	xori	r2,zero,253
  80349c:	00803ed4 	movui	r2,251
  8034a0:	00803da8 	cmpgeui	r2,zero,246
  8034a4:	008034e4 	muli	r2,zero,211
  8034a8:	00803dc8 	cmpgei	r2,zero,247
  8034ac:	00803f5c 	xori	r2,zero,253
  8034b0:	00803dd4 	movui	r2,247
  8034b4:	00803f5c 	xori	r2,zero,253
  8034b8:	00803e30 	cmpltui	r2,zero,248
  8034bc:	00803f5c 	xori	r2,zero,253
  8034c0:	00803f5c 	xori	r2,zero,253
  8034c4:	00803e40 	call	803e4 <__alt_mem_sdram-0x77fc1c>
  8034c8:	d9003117 	ldw	r4,196(sp)
  8034cc:	d8802d15 	stw	r2,180(sp)
  8034d0:	0109c83a 	sub	r4,zero,r4
  8034d4:	d9003115 	stw	r4,196(sp)
  8034d8:	94800114 	ori	r18,r18,4
  8034dc:	ac400007 	ldb	r17,0(r21)
  8034e0:	003f9706 	br	803340 <__alt_mem_onchip_mem+0xff7fb340>
  8034e4:	00800c04 	movi	r2,48
  8034e8:	d9002d17 	ldw	r4,180(sp)
  8034ec:	d9402917 	ldw	r5,164(sp)
  8034f0:	d8802705 	stb	r2,156(sp)
  8034f4:	00801e04 	movi	r2,120
  8034f8:	d8802745 	stb	r2,157(sp)
  8034fc:	d8002785 	stb	zero,158(sp)
  803500:	20c00104 	addi	r3,r4,4
  803504:	24c00017 	ldw	r19,0(r4)
  803508:	002d883a 	mov	r22,zero
  80350c:	90800094 	ori	r2,r18,2
  803510:	28029a16 	blt	r5,zero,803f7c <___vfprintf_internal_r+0xdc0>
  803514:	00bfdfc4 	movi	r2,-129
  803518:	90a4703a 	and	r18,r18,r2
  80351c:	d8c02d15 	stw	r3,180(sp)
  803520:	94800094 	ori	r18,r18,2
  803524:	9802871e 	bne	r19,zero,803f44 <___vfprintf_internal_r+0xd88>
  803528:	00802074 	movhi	r2,129
  80352c:	108a8e04 	addi	r2,r2,10808
  803530:	d8803915 	stw	r2,228(sp)
  803534:	04401e04 	movi	r17,120
  803538:	d8802917 	ldw	r2,164(sp)
  80353c:	0039883a 	mov	fp,zero
  803540:	1001e926 	beq	r2,zero,803ce8 <___vfprintf_internal_r+0xb2c>
  803544:	0027883a 	mov	r19,zero
  803548:	002d883a 	mov	r22,zero
  80354c:	00020506 	br	803d64 <___vfprintf_internal_r+0xba8>
  803550:	d9002c17 	ldw	r4,176(sp)
  803554:	b80b883a 	mov	r5,r23
  803558:	08056440 	call	805644 <__swsetup_r>
  80355c:	1005ac1e 	bne	r2,zero,804c10 <___vfprintf_internal_r+0x1a54>
  803560:	b880030b 	ldhu	r2,12(r23)
  803564:	00c00284 	movi	r3,10
  803568:	1080068c 	andi	r2,r2,26
  80356c:	10ff3c1e 	bne	r2,r3,803260 <__alt_mem_onchip_mem+0xff7fb260>
  803570:	b880038f 	ldh	r2,14(r23)
  803574:	103f3a16 	blt	r2,zero,803260 <__alt_mem_onchip_mem+0xff7fb260>
  803578:	d9c02d17 	ldw	r7,180(sp)
  80357c:	d9002c17 	ldw	r4,176(sp)
  803580:	a80d883a 	mov	r6,r21
  803584:	b80b883a 	mov	r5,r23
  803588:	08053d00 	call	8053d0 <__sbprintf>
  80358c:	00001106 	br	8035d4 <___vfprintf_internal_r+0x418>
  803590:	d9002c17 	ldw	r4,176(sp)
  803594:	d9801e04 	addi	r6,sp,120
  803598:	b80b883a 	mov	r5,r23
  80359c:	0809b780 	call	809b78 <__sprint_r>
  8035a0:	1000081e 	bne	r2,zero,8035c4 <___vfprintf_internal_r+0x408>
  8035a4:	da000404 	addi	r8,sp,16
  8035a8:	003f5306 	br	8032f8 <__alt_mem_onchip_mem+0xff7fb2f8>
  8035ac:	d8802017 	ldw	r2,128(sp)
  8035b0:	10000426 	beq	r2,zero,8035c4 <___vfprintf_internal_r+0x408>
  8035b4:	d9002c17 	ldw	r4,176(sp)
  8035b8:	d9801e04 	addi	r6,sp,120
  8035bc:	b80b883a 	mov	r5,r23
  8035c0:	0809b780 	call	809b78 <__sprint_r>
  8035c4:	b880030b 	ldhu	r2,12(r23)
  8035c8:	1080100c 	andi	r2,r2,64
  8035cc:	1005901e 	bne	r2,zero,804c10 <___vfprintf_internal_r+0x1a54>
  8035d0:	d8802f17 	ldw	r2,188(sp)
  8035d4:	dfc04717 	ldw	ra,284(sp)
  8035d8:	df004617 	ldw	fp,280(sp)
  8035dc:	ddc04517 	ldw	r23,276(sp)
  8035e0:	dd804417 	ldw	r22,272(sp)
  8035e4:	dd404317 	ldw	r21,268(sp)
  8035e8:	dd004217 	ldw	r20,264(sp)
  8035ec:	dcc04117 	ldw	r19,260(sp)
  8035f0:	dc804017 	ldw	r18,256(sp)
  8035f4:	dc403f17 	ldw	r17,252(sp)
  8035f8:	dc003e17 	ldw	r16,248(sp)
  8035fc:	dec04804 	addi	sp,sp,288
  803600:	f800283a 	ret
  803604:	d9002c17 	ldw	r4,176(sp)
  803608:	08017500 	call	801750 <__sinit>
  80360c:	003f0406 	br	803220 <__alt_mem_onchip_mem+0xff7fb220>
  803610:	d8802d17 	ldw	r2,180(sp)
  803614:	d9002d17 	ldw	r4,180(sp)
  803618:	10800017 	ldw	r2,0(r2)
  80361c:	d8803115 	stw	r2,196(sp)
  803620:	20800104 	addi	r2,r4,4
  803624:	d9003117 	ldw	r4,196(sp)
  803628:	203fa716 	blt	r4,zero,8034c8 <__alt_mem_onchip_mem+0xff7fb4c8>
  80362c:	d8802d15 	stw	r2,180(sp)
  803630:	ac400007 	ldb	r17,0(r21)
  803634:	003f4206 	br	803340 <__alt_mem_onchip_mem+0xff7fb340>
  803638:	ac400007 	ldb	r17,0(r21)
  80363c:	aac00044 	addi	r11,r21,1
  803640:	8a872826 	beq	r17,r10,8052e4 <___vfprintf_internal_r+0x2128>
  803644:	88bff404 	addi	r2,r17,-48
  803648:	0009883a 	mov	r4,zero
  80364c:	30867d36 	bltu	r6,r2,805044 <___vfprintf_internal_r+0x1e88>
  803650:	5c400007 	ldb	r17,0(r11)
  803654:	210002a4 	muli	r4,r4,10
  803658:	5d400044 	addi	r21,r11,1
  80365c:	a817883a 	mov	r11,r21
  803660:	2089883a 	add	r4,r4,r2
  803664:	88bff404 	addi	r2,r17,-48
  803668:	30bff92e 	bgeu	r6,r2,803650 <__alt_mem_onchip_mem+0xff7fb650>
  80366c:	2005c916 	blt	r4,zero,804d94 <___vfprintf_internal_r+0x1bd8>
  803670:	d9002915 	stw	r4,164(sp)
  803674:	003f3306 	br	803344 <__alt_mem_onchip_mem+0xff7fb344>
  803678:	94802014 	ori	r18,r18,128
  80367c:	ac400007 	ldb	r17,0(r21)
  803680:	003f2f06 	br	803340 <__alt_mem_onchip_mem+0xff7fb340>
  803684:	a809883a 	mov	r4,r21
  803688:	d8003115 	stw	zero,196(sp)
  80368c:	88bff404 	addi	r2,r17,-48
  803690:	0017883a 	mov	r11,zero
  803694:	24400007 	ldb	r17,0(r4)
  803698:	5ac002a4 	muli	r11,r11,10
  80369c:	ad400044 	addi	r21,r21,1
  8036a0:	a809883a 	mov	r4,r21
  8036a4:	12d7883a 	add	r11,r2,r11
  8036a8:	88bff404 	addi	r2,r17,-48
  8036ac:	30bff92e 	bgeu	r6,r2,803694 <__alt_mem_onchip_mem+0xff7fb694>
  8036b0:	dac03115 	stw	r11,196(sp)
  8036b4:	003f2306 	br	803344 <__alt_mem_onchip_mem+0xff7fb344>
  8036b8:	18c03fcc 	andi	r3,r3,255
  8036bc:	18072b1e 	bne	r3,zero,80536c <___vfprintf_internal_r+0x21b0>
  8036c0:	94800414 	ori	r18,r18,16
  8036c4:	9080080c 	andi	r2,r18,32
  8036c8:	10037b26 	beq	r2,zero,8044b8 <___vfprintf_internal_r+0x12fc>
  8036cc:	d9402d17 	ldw	r5,180(sp)
  8036d0:	28800117 	ldw	r2,4(r5)
  8036d4:	2cc00017 	ldw	r19,0(r5)
  8036d8:	29400204 	addi	r5,r5,8
  8036dc:	d9402d15 	stw	r5,180(sp)
  8036e0:	102d883a 	mov	r22,r2
  8036e4:	10044b16 	blt	r2,zero,804814 <___vfprintf_internal_r+0x1658>
  8036e8:	d9402917 	ldw	r5,164(sp)
  8036ec:	df002783 	ldbu	fp,158(sp)
  8036f0:	2803bc16 	blt	r5,zero,8045e4 <___vfprintf_internal_r+0x1428>
  8036f4:	00ffdfc4 	movi	r3,-129
  8036f8:	9d84b03a 	or	r2,r19,r22
  8036fc:	90e4703a 	and	r18,r18,r3
  803700:	10017726 	beq	r2,zero,803ce0 <___vfprintf_internal_r+0xb24>
  803704:	b0038326 	beq	r22,zero,804514 <___vfprintf_internal_r+0x1358>
  803708:	dc402a15 	stw	r17,168(sp)
  80370c:	dc001e04 	addi	r16,sp,120
  803710:	b023883a 	mov	r17,r22
  803714:	402d883a 	mov	r22,r8
  803718:	9809883a 	mov	r4,r19
  80371c:	880b883a 	mov	r5,r17
  803720:	01800284 	movi	r6,10
  803724:	000f883a 	mov	r7,zero
  803728:	080baf00 	call	80baf0 <__umoddi3>
  80372c:	10800c04 	addi	r2,r2,48
  803730:	843fffc4 	addi	r16,r16,-1
  803734:	9809883a 	mov	r4,r19
  803738:	880b883a 	mov	r5,r17
  80373c:	80800005 	stb	r2,0(r16)
  803740:	01800284 	movi	r6,10
  803744:	000f883a 	mov	r7,zero
  803748:	080b5780 	call	80b578 <__udivdi3>
  80374c:	1027883a 	mov	r19,r2
  803750:	10c4b03a 	or	r2,r2,r3
  803754:	1823883a 	mov	r17,r3
  803758:	103fef1e 	bne	r2,zero,803718 <__alt_mem_onchip_mem+0xff7fb718>
  80375c:	d8c02817 	ldw	r3,160(sp)
  803760:	dc402a17 	ldw	r17,168(sp)
  803764:	b011883a 	mov	r8,r22
  803768:	1c07c83a 	sub	r3,r3,r16
  80376c:	d8c02e15 	stw	r3,184(sp)
  803770:	00005906 	br	8038d8 <___vfprintf_internal_r+0x71c>
  803774:	18c03fcc 	andi	r3,r3,255
  803778:	1806fa1e 	bne	r3,zero,805364 <___vfprintf_internal_r+0x21a8>
  80377c:	9080020c 	andi	r2,r18,8
  803780:	10048a26 	beq	r2,zero,8049ac <___vfprintf_internal_r+0x17f0>
  803784:	d8c02d17 	ldw	r3,180(sp)
  803788:	d9002d17 	ldw	r4,180(sp)
  80378c:	d9402d17 	ldw	r5,180(sp)
  803790:	18c00017 	ldw	r3,0(r3)
  803794:	21000117 	ldw	r4,4(r4)
  803798:	29400204 	addi	r5,r5,8
  80379c:	d8c03615 	stw	r3,216(sp)
  8037a0:	d9003815 	stw	r4,224(sp)
  8037a4:	d9402d15 	stw	r5,180(sp)
  8037a8:	d9003617 	ldw	r4,216(sp)
  8037ac:	d9403817 	ldw	r5,224(sp)
  8037b0:	da003d15 	stw	r8,244(sp)
  8037b4:	04000044 	movi	r16,1
  8037b8:	08098940 	call	809894 <__fpclassifyd>
  8037bc:	da003d17 	ldw	r8,244(sp)
  8037c0:	14041f1e 	bne	r2,r16,804840 <___vfprintf_internal_r+0x1684>
  8037c4:	d9003617 	ldw	r4,216(sp)
  8037c8:	d9403817 	ldw	r5,224(sp)
  8037cc:	000d883a 	mov	r6,zero
  8037d0:	000f883a 	mov	r7,zero
  8037d4:	080d3200 	call	80d320 <__ledf2>
  8037d8:	da003d17 	ldw	r8,244(sp)
  8037dc:	1005be16 	blt	r2,zero,804ed8 <___vfprintf_internal_r+0x1d1c>
  8037e0:	df002783 	ldbu	fp,158(sp)
  8037e4:	008011c4 	movi	r2,71
  8037e8:	1445330e 	bge	r2,r17,804cb8 <___vfprintf_internal_r+0x1afc>
  8037ec:	04002074 	movhi	r16,129
  8037f0:	840a8604 	addi	r16,r16,10776
  8037f4:	00c000c4 	movi	r3,3
  8037f8:	00bfdfc4 	movi	r2,-129
  8037fc:	d8c02a15 	stw	r3,168(sp)
  803800:	90a4703a 	and	r18,r18,r2
  803804:	d8c02e15 	stw	r3,184(sp)
  803808:	d8002915 	stw	zero,164(sp)
  80380c:	d8003215 	stw	zero,200(sp)
  803810:	00003706 	br	8038f0 <___vfprintf_internal_r+0x734>
  803814:	94800214 	ori	r18,r18,8
  803818:	ac400007 	ldb	r17,0(r21)
  80381c:	003ec806 	br	803340 <__alt_mem_onchip_mem+0xff7fb340>
  803820:	18c03fcc 	andi	r3,r3,255
  803824:	1806db1e 	bne	r3,zero,805394 <___vfprintf_internal_r+0x21d8>
  803828:	94800414 	ori	r18,r18,16
  80382c:	9080080c 	andi	r2,r18,32
  803830:	1002d826 	beq	r2,zero,804394 <___vfprintf_internal_r+0x11d8>
  803834:	d9402d17 	ldw	r5,180(sp)
  803838:	d8c02917 	ldw	r3,164(sp)
  80383c:	d8002785 	stb	zero,158(sp)
  803840:	28800204 	addi	r2,r5,8
  803844:	2cc00017 	ldw	r19,0(r5)
  803848:	2d800117 	ldw	r22,4(r5)
  80384c:	18048f16 	blt	r3,zero,804a8c <___vfprintf_internal_r+0x18d0>
  803850:	013fdfc4 	movi	r4,-129
  803854:	9d86b03a 	or	r3,r19,r22
  803858:	d8802d15 	stw	r2,180(sp)
  80385c:	9124703a 	and	r18,r18,r4
  803860:	1802d91e 	bne	r3,zero,8043c8 <___vfprintf_internal_r+0x120c>
  803864:	d8c02917 	ldw	r3,164(sp)
  803868:	0039883a 	mov	fp,zero
  80386c:	1805c326 	beq	r3,zero,804f7c <___vfprintf_internal_r+0x1dc0>
  803870:	0027883a 	mov	r19,zero
  803874:	002d883a 	mov	r22,zero
  803878:	dc001e04 	addi	r16,sp,120
  80387c:	9806d0fa 	srli	r3,r19,3
  803880:	b008977a 	slli	r4,r22,29
  803884:	b02cd0fa 	srli	r22,r22,3
  803888:	9cc001cc 	andi	r19,r19,7
  80388c:	98800c04 	addi	r2,r19,48
  803890:	843fffc4 	addi	r16,r16,-1
  803894:	20e6b03a 	or	r19,r4,r3
  803898:	80800005 	stb	r2,0(r16)
  80389c:	9d86b03a 	or	r3,r19,r22
  8038a0:	183ff61e 	bne	r3,zero,80387c <__alt_mem_onchip_mem+0xff7fb87c>
  8038a4:	90c0004c 	andi	r3,r18,1
  8038a8:	18013b26 	beq	r3,zero,803d98 <___vfprintf_internal_r+0xbdc>
  8038ac:	10803fcc 	andi	r2,r2,255
  8038b0:	1080201c 	xori	r2,r2,128
  8038b4:	10bfe004 	addi	r2,r2,-128
  8038b8:	00c00c04 	movi	r3,48
  8038bc:	10c13626 	beq	r2,r3,803d98 <___vfprintf_internal_r+0xbdc>
  8038c0:	80ffffc5 	stb	r3,-1(r16)
  8038c4:	d8c02817 	ldw	r3,160(sp)
  8038c8:	80bfffc4 	addi	r2,r16,-1
  8038cc:	1021883a 	mov	r16,r2
  8038d0:	1887c83a 	sub	r3,r3,r2
  8038d4:	d8c02e15 	stw	r3,184(sp)
  8038d8:	d8802e17 	ldw	r2,184(sp)
  8038dc:	d9002917 	ldw	r4,164(sp)
  8038e0:	1100010e 	bge	r2,r4,8038e8 <___vfprintf_internal_r+0x72c>
  8038e4:	2005883a 	mov	r2,r4
  8038e8:	d8802a15 	stw	r2,168(sp)
  8038ec:	d8003215 	stw	zero,200(sp)
  8038f0:	e7003fcc 	andi	fp,fp,255
  8038f4:	e700201c 	xori	fp,fp,128
  8038f8:	e73fe004 	addi	fp,fp,-128
  8038fc:	e0000326 	beq	fp,zero,80390c <___vfprintf_internal_r+0x750>
  803900:	d8c02a17 	ldw	r3,168(sp)
  803904:	18c00044 	addi	r3,r3,1
  803908:	d8c02a15 	stw	r3,168(sp)
  80390c:	90c0008c 	andi	r3,r18,2
  803910:	d8c02b15 	stw	r3,172(sp)
  803914:	18000326 	beq	r3,zero,803924 <___vfprintf_internal_r+0x768>
  803918:	d8c02a17 	ldw	r3,168(sp)
  80391c:	18c00084 	addi	r3,r3,2
  803920:	d8c02a15 	stw	r3,168(sp)
  803924:	90c0210c 	andi	r3,r18,132
  803928:	d8c03015 	stw	r3,192(sp)
  80392c:	1801a31e 	bne	r3,zero,803fbc <___vfprintf_internal_r+0xe00>
  803930:	d9003117 	ldw	r4,196(sp)
  803934:	d8c02a17 	ldw	r3,168(sp)
  803938:	20e7c83a 	sub	r19,r4,r3
  80393c:	04c19f0e 	bge	zero,r19,803fbc <___vfprintf_internal_r+0xe00>
  803940:	02400404 	movi	r9,16
  803944:	d8c02017 	ldw	r3,128(sp)
  803948:	d8801f17 	ldw	r2,124(sp)
  80394c:	4cc50d0e 	bge	r9,r19,804d84 <___vfprintf_internal_r+0x1bc8>
  803950:	01402074 	movhi	r5,129
  803954:	294a9984 	addi	r5,r5,10854
  803958:	dc403b15 	stw	r17,236(sp)
  80395c:	d9403515 	stw	r5,212(sp)
  803960:	9823883a 	mov	r17,r19
  803964:	482d883a 	mov	r22,r9
  803968:	9027883a 	mov	r19,r18
  80396c:	070001c4 	movi	fp,7
  803970:	8025883a 	mov	r18,r16
  803974:	dc002c17 	ldw	r16,176(sp)
  803978:	00000306 	br	803988 <___vfprintf_internal_r+0x7cc>
  80397c:	8c7ffc04 	addi	r17,r17,-16
  803980:	42000204 	addi	r8,r8,8
  803984:	b440130e 	bge	r22,r17,8039d4 <___vfprintf_internal_r+0x818>
  803988:	01002074 	movhi	r4,129
  80398c:	18c00404 	addi	r3,r3,16
  803990:	10800044 	addi	r2,r2,1
  803994:	210a9984 	addi	r4,r4,10854
  803998:	41000015 	stw	r4,0(r8)
  80399c:	45800115 	stw	r22,4(r8)
  8039a0:	d8c02015 	stw	r3,128(sp)
  8039a4:	d8801f15 	stw	r2,124(sp)
  8039a8:	e0bff40e 	bge	fp,r2,80397c <__alt_mem_onchip_mem+0xff7fb97c>
  8039ac:	d9801e04 	addi	r6,sp,120
  8039b0:	b80b883a 	mov	r5,r23
  8039b4:	8009883a 	mov	r4,r16
  8039b8:	0809b780 	call	809b78 <__sprint_r>
  8039bc:	103f011e 	bne	r2,zero,8035c4 <__alt_mem_onchip_mem+0xff7fb5c4>
  8039c0:	8c7ffc04 	addi	r17,r17,-16
  8039c4:	d8c02017 	ldw	r3,128(sp)
  8039c8:	d8801f17 	ldw	r2,124(sp)
  8039cc:	da000404 	addi	r8,sp,16
  8039d0:	b47fed16 	blt	r22,r17,803988 <__alt_mem_onchip_mem+0xff7fb988>
  8039d4:	9021883a 	mov	r16,r18
  8039d8:	9825883a 	mov	r18,r19
  8039dc:	8827883a 	mov	r19,r17
  8039e0:	dc403b17 	ldw	r17,236(sp)
  8039e4:	d9403517 	ldw	r5,212(sp)
  8039e8:	98c7883a 	add	r3,r19,r3
  8039ec:	10800044 	addi	r2,r2,1
  8039f0:	41400015 	stw	r5,0(r8)
  8039f4:	44c00115 	stw	r19,4(r8)
  8039f8:	d8c02015 	stw	r3,128(sp)
  8039fc:	d8801f15 	stw	r2,124(sp)
  803a00:	010001c4 	movi	r4,7
  803a04:	2082a316 	blt	r4,r2,804494 <___vfprintf_internal_r+0x12d8>
  803a08:	df002787 	ldb	fp,158(sp)
  803a0c:	42000204 	addi	r8,r8,8
  803a10:	e0000c26 	beq	fp,zero,803a44 <___vfprintf_internal_r+0x888>
  803a14:	d8801f17 	ldw	r2,124(sp)
  803a18:	d9002784 	addi	r4,sp,158
  803a1c:	18c00044 	addi	r3,r3,1
  803a20:	10800044 	addi	r2,r2,1
  803a24:	41000015 	stw	r4,0(r8)
  803a28:	01000044 	movi	r4,1
  803a2c:	41000115 	stw	r4,4(r8)
  803a30:	d8c02015 	stw	r3,128(sp)
  803a34:	d8801f15 	stw	r2,124(sp)
  803a38:	010001c4 	movi	r4,7
  803a3c:	20823c16 	blt	r4,r2,804330 <___vfprintf_internal_r+0x1174>
  803a40:	42000204 	addi	r8,r8,8
  803a44:	d8802b17 	ldw	r2,172(sp)
  803a48:	10000c26 	beq	r2,zero,803a7c <___vfprintf_internal_r+0x8c0>
  803a4c:	d8801f17 	ldw	r2,124(sp)
  803a50:	d9002704 	addi	r4,sp,156
  803a54:	18c00084 	addi	r3,r3,2
  803a58:	10800044 	addi	r2,r2,1
  803a5c:	41000015 	stw	r4,0(r8)
  803a60:	01000084 	movi	r4,2
  803a64:	41000115 	stw	r4,4(r8)
  803a68:	d8c02015 	stw	r3,128(sp)
  803a6c:	d8801f15 	stw	r2,124(sp)
  803a70:	010001c4 	movi	r4,7
  803a74:	20823616 	blt	r4,r2,804350 <___vfprintf_internal_r+0x1194>
  803a78:	42000204 	addi	r8,r8,8
  803a7c:	d9003017 	ldw	r4,192(sp)
  803a80:	00802004 	movi	r2,128
  803a84:	20819926 	beq	r4,r2,8040ec <___vfprintf_internal_r+0xf30>
  803a88:	d9402917 	ldw	r5,164(sp)
  803a8c:	d8802e17 	ldw	r2,184(sp)
  803a90:	28adc83a 	sub	r22,r5,r2
  803a94:	0580310e 	bge	zero,r22,803b5c <___vfprintf_internal_r+0x9a0>
  803a98:	07000404 	movi	fp,16
  803a9c:	d8801f17 	ldw	r2,124(sp)
  803aa0:	e584140e 	bge	fp,r22,804af4 <___vfprintf_internal_r+0x1938>
  803aa4:	01402074 	movhi	r5,129
  803aa8:	294a9584 	addi	r5,r5,10838
  803aac:	dc402915 	stw	r17,164(sp)
  803ab0:	d9402b15 	stw	r5,172(sp)
  803ab4:	b023883a 	mov	r17,r22
  803ab8:	04c001c4 	movi	r19,7
  803abc:	a82d883a 	mov	r22,r21
  803ac0:	902b883a 	mov	r21,r18
  803ac4:	8025883a 	mov	r18,r16
  803ac8:	dc002c17 	ldw	r16,176(sp)
  803acc:	00000306 	br	803adc <___vfprintf_internal_r+0x920>
  803ad0:	8c7ffc04 	addi	r17,r17,-16
  803ad4:	42000204 	addi	r8,r8,8
  803ad8:	e440110e 	bge	fp,r17,803b20 <___vfprintf_internal_r+0x964>
  803adc:	18c00404 	addi	r3,r3,16
  803ae0:	10800044 	addi	r2,r2,1
  803ae4:	45000015 	stw	r20,0(r8)
  803ae8:	47000115 	stw	fp,4(r8)
  803aec:	d8c02015 	stw	r3,128(sp)
  803af0:	d8801f15 	stw	r2,124(sp)
  803af4:	98bff60e 	bge	r19,r2,803ad0 <__alt_mem_onchip_mem+0xff7fbad0>
  803af8:	d9801e04 	addi	r6,sp,120
  803afc:	b80b883a 	mov	r5,r23
  803b00:	8009883a 	mov	r4,r16
  803b04:	0809b780 	call	809b78 <__sprint_r>
  803b08:	103eae1e 	bne	r2,zero,8035c4 <__alt_mem_onchip_mem+0xff7fb5c4>
  803b0c:	8c7ffc04 	addi	r17,r17,-16
  803b10:	d8c02017 	ldw	r3,128(sp)
  803b14:	d8801f17 	ldw	r2,124(sp)
  803b18:	da000404 	addi	r8,sp,16
  803b1c:	e47fef16 	blt	fp,r17,803adc <__alt_mem_onchip_mem+0xff7fbadc>
  803b20:	9021883a 	mov	r16,r18
  803b24:	a825883a 	mov	r18,r21
  803b28:	b02b883a 	mov	r21,r22
  803b2c:	882d883a 	mov	r22,r17
  803b30:	dc402917 	ldw	r17,164(sp)
  803b34:	d9002b17 	ldw	r4,172(sp)
  803b38:	1d87883a 	add	r3,r3,r22
  803b3c:	10800044 	addi	r2,r2,1
  803b40:	41000015 	stw	r4,0(r8)
  803b44:	45800115 	stw	r22,4(r8)
  803b48:	d8c02015 	stw	r3,128(sp)
  803b4c:	d8801f15 	stw	r2,124(sp)
  803b50:	010001c4 	movi	r4,7
  803b54:	2081ee16 	blt	r4,r2,804310 <___vfprintf_internal_r+0x1154>
  803b58:	42000204 	addi	r8,r8,8
  803b5c:	9080400c 	andi	r2,r18,256
  803b60:	1001181e 	bne	r2,zero,803fc4 <___vfprintf_internal_r+0xe08>
  803b64:	d9402e17 	ldw	r5,184(sp)
  803b68:	d8801f17 	ldw	r2,124(sp)
  803b6c:	44000015 	stw	r16,0(r8)
  803b70:	1947883a 	add	r3,r3,r5
  803b74:	10800044 	addi	r2,r2,1
  803b78:	41400115 	stw	r5,4(r8)
  803b7c:	d8c02015 	stw	r3,128(sp)
  803b80:	d8801f15 	stw	r2,124(sp)
  803b84:	010001c4 	movi	r4,7
  803b88:	2081d316 	blt	r4,r2,8042d8 <___vfprintf_internal_r+0x111c>
  803b8c:	42000204 	addi	r8,r8,8
  803b90:	9480010c 	andi	r18,r18,4
  803b94:	90003226 	beq	r18,zero,803c60 <___vfprintf_internal_r+0xaa4>
  803b98:	d9403117 	ldw	r5,196(sp)
  803b9c:	d8802a17 	ldw	r2,168(sp)
  803ba0:	28a1c83a 	sub	r16,r5,r2
  803ba4:	04002e0e 	bge	zero,r16,803c60 <___vfprintf_internal_r+0xaa4>
  803ba8:	04400404 	movi	r17,16
  803bac:	d8801f17 	ldw	r2,124(sp)
  803bb0:	8c04a20e 	bge	r17,r16,804e3c <___vfprintf_internal_r+0x1c80>
  803bb4:	01402074 	movhi	r5,129
  803bb8:	294a9984 	addi	r5,r5,10854
  803bbc:	d9403515 	stw	r5,212(sp)
  803bc0:	048001c4 	movi	r18,7
  803bc4:	dcc02c17 	ldw	r19,176(sp)
  803bc8:	00000306 	br	803bd8 <___vfprintf_internal_r+0xa1c>
  803bcc:	843ffc04 	addi	r16,r16,-16
  803bd0:	42000204 	addi	r8,r8,8
  803bd4:	8c00130e 	bge	r17,r16,803c24 <___vfprintf_internal_r+0xa68>
  803bd8:	01002074 	movhi	r4,129
  803bdc:	18c00404 	addi	r3,r3,16
  803be0:	10800044 	addi	r2,r2,1
  803be4:	210a9984 	addi	r4,r4,10854
  803be8:	41000015 	stw	r4,0(r8)
  803bec:	44400115 	stw	r17,4(r8)
  803bf0:	d8c02015 	stw	r3,128(sp)
  803bf4:	d8801f15 	stw	r2,124(sp)
  803bf8:	90bff40e 	bge	r18,r2,803bcc <__alt_mem_onchip_mem+0xff7fbbcc>
  803bfc:	d9801e04 	addi	r6,sp,120
  803c00:	b80b883a 	mov	r5,r23
  803c04:	9809883a 	mov	r4,r19
  803c08:	0809b780 	call	809b78 <__sprint_r>
  803c0c:	103e6d1e 	bne	r2,zero,8035c4 <__alt_mem_onchip_mem+0xff7fb5c4>
  803c10:	843ffc04 	addi	r16,r16,-16
  803c14:	d8c02017 	ldw	r3,128(sp)
  803c18:	d8801f17 	ldw	r2,124(sp)
  803c1c:	da000404 	addi	r8,sp,16
  803c20:	8c3fed16 	blt	r17,r16,803bd8 <__alt_mem_onchip_mem+0xff7fbbd8>
  803c24:	d9403517 	ldw	r5,212(sp)
  803c28:	1c07883a 	add	r3,r3,r16
  803c2c:	10800044 	addi	r2,r2,1
  803c30:	41400015 	stw	r5,0(r8)
  803c34:	44000115 	stw	r16,4(r8)
  803c38:	d8c02015 	stw	r3,128(sp)
  803c3c:	d8801f15 	stw	r2,124(sp)
  803c40:	010001c4 	movi	r4,7
  803c44:	2080060e 	bge	r4,r2,803c60 <___vfprintf_internal_r+0xaa4>
  803c48:	d9002c17 	ldw	r4,176(sp)
  803c4c:	d9801e04 	addi	r6,sp,120
  803c50:	b80b883a 	mov	r5,r23
  803c54:	0809b780 	call	809b78 <__sprint_r>
  803c58:	103e5a1e 	bne	r2,zero,8035c4 <__alt_mem_onchip_mem+0xff7fb5c4>
  803c5c:	d8c02017 	ldw	r3,128(sp)
  803c60:	d8803117 	ldw	r2,196(sp)
  803c64:	d9002a17 	ldw	r4,168(sp)
  803c68:	1100010e 	bge	r2,r4,803c70 <___vfprintf_internal_r+0xab4>
  803c6c:	2005883a 	mov	r2,r4
  803c70:	d9402f17 	ldw	r5,188(sp)
  803c74:	288b883a 	add	r5,r5,r2
  803c78:	d9402f15 	stw	r5,188(sp)
  803c7c:	18019e1e 	bne	r3,zero,8042f8 <___vfprintf_internal_r+0x113c>
  803c80:	a8800007 	ldb	r2,0(r21)
  803c84:	d8001f15 	stw	zero,124(sp)
  803c88:	da000404 	addi	r8,sp,16
  803c8c:	103d851e 	bne	r2,zero,8032a4 <__alt_mem_onchip_mem+0xff7fb2a4>
  803c90:	a821883a 	mov	r16,r21
  803c94:	003d9b06 	br	803304 <__alt_mem_onchip_mem+0xff7fb304>
  803c98:	18c03fcc 	andi	r3,r3,255
  803c9c:	1805c11e 	bne	r3,zero,8053a4 <___vfprintf_internal_r+0x21e8>
  803ca0:	94800414 	ori	r18,r18,16
  803ca4:	9080080c 	andi	r2,r18,32
  803ca8:	10020c26 	beq	r2,zero,8044dc <___vfprintf_internal_r+0x1320>
  803cac:	d8802d17 	ldw	r2,180(sp)
  803cb0:	d9002917 	ldw	r4,164(sp)
  803cb4:	d8002785 	stb	zero,158(sp)
  803cb8:	10c00204 	addi	r3,r2,8
  803cbc:	14c00017 	ldw	r19,0(r2)
  803cc0:	15800117 	ldw	r22,4(r2)
  803cc4:	20040f16 	blt	r4,zero,804d04 <___vfprintf_internal_r+0x1b48>
  803cc8:	013fdfc4 	movi	r4,-129
  803ccc:	9d84b03a 	or	r2,r19,r22
  803cd0:	d8c02d15 	stw	r3,180(sp)
  803cd4:	9124703a 	and	r18,r18,r4
  803cd8:	0039883a 	mov	fp,zero
  803cdc:	103e891e 	bne	r2,zero,803704 <__alt_mem_onchip_mem+0xff7fb704>
  803ce0:	d9002917 	ldw	r4,164(sp)
  803ce4:	2002c11e 	bne	r4,zero,8047ec <___vfprintf_internal_r+0x1630>
  803ce8:	d8002915 	stw	zero,164(sp)
  803cec:	d8002e15 	stw	zero,184(sp)
  803cf0:	dc001e04 	addi	r16,sp,120
  803cf4:	003ef806 	br	8038d8 <__alt_mem_onchip_mem+0xff7fb8d8>
  803cf8:	18c03fcc 	andi	r3,r3,255
  803cfc:	18059d1e 	bne	r3,zero,805374 <___vfprintf_internal_r+0x21b8>
  803d00:	01402074 	movhi	r5,129
  803d04:	294a8904 	addi	r5,r5,10788
  803d08:	d9403915 	stw	r5,228(sp)
  803d0c:	9080080c 	andi	r2,r18,32
  803d10:	10005226 	beq	r2,zero,803e5c <___vfprintf_internal_r+0xca0>
  803d14:	d8802d17 	ldw	r2,180(sp)
  803d18:	14c00017 	ldw	r19,0(r2)
  803d1c:	15800117 	ldw	r22,4(r2)
  803d20:	10800204 	addi	r2,r2,8
  803d24:	d8802d15 	stw	r2,180(sp)
  803d28:	9080004c 	andi	r2,r18,1
  803d2c:	10019026 	beq	r2,zero,804370 <___vfprintf_internal_r+0x11b4>
  803d30:	9d84b03a 	or	r2,r19,r22
  803d34:	10036926 	beq	r2,zero,804adc <___vfprintf_internal_r+0x1920>
  803d38:	d8c02917 	ldw	r3,164(sp)
  803d3c:	00800c04 	movi	r2,48
  803d40:	d8802705 	stb	r2,156(sp)
  803d44:	dc402745 	stb	r17,157(sp)
  803d48:	d8002785 	stb	zero,158(sp)
  803d4c:	90800094 	ori	r2,r18,2
  803d50:	18045d16 	blt	r3,zero,804ec8 <___vfprintf_internal_r+0x1d0c>
  803d54:	00bfdfc4 	movi	r2,-129
  803d58:	90a4703a 	and	r18,r18,r2
  803d5c:	94800094 	ori	r18,r18,2
  803d60:	0039883a 	mov	fp,zero
  803d64:	d9003917 	ldw	r4,228(sp)
  803d68:	dc001e04 	addi	r16,sp,120
  803d6c:	988003cc 	andi	r2,r19,15
  803d70:	b006973a 	slli	r3,r22,28
  803d74:	2085883a 	add	r2,r4,r2
  803d78:	9826d13a 	srli	r19,r19,4
  803d7c:	10800003 	ldbu	r2,0(r2)
  803d80:	b02cd13a 	srli	r22,r22,4
  803d84:	843fffc4 	addi	r16,r16,-1
  803d88:	1ce6b03a 	or	r19,r3,r19
  803d8c:	80800005 	stb	r2,0(r16)
  803d90:	9d84b03a 	or	r2,r19,r22
  803d94:	103ff51e 	bne	r2,zero,803d6c <__alt_mem_onchip_mem+0xff7fbd6c>
  803d98:	d8c02817 	ldw	r3,160(sp)
  803d9c:	1c07c83a 	sub	r3,r3,r16
  803da0:	d8c02e15 	stw	r3,184(sp)
  803da4:	003ecc06 	br	8038d8 <__alt_mem_onchip_mem+0xff7fb8d8>
  803da8:	18c03fcc 	andi	r3,r3,255
  803dac:	183e9f26 	beq	r3,zero,80382c <__alt_mem_onchip_mem+0xff7fb82c>
  803db0:	d9c02785 	stb	r7,158(sp)
  803db4:	003e9d06 	br	80382c <__alt_mem_onchip_mem+0xff7fb82c>
  803db8:	00c00044 	movi	r3,1
  803dbc:	01c00ac4 	movi	r7,43
  803dc0:	ac400007 	ldb	r17,0(r21)
  803dc4:	003d5e06 	br	803340 <__alt_mem_onchip_mem+0xff7fb340>
  803dc8:	94800814 	ori	r18,r18,32
  803dcc:	ac400007 	ldb	r17,0(r21)
  803dd0:	003d5b06 	br	803340 <__alt_mem_onchip_mem+0xff7fb340>
  803dd4:	d8c02d17 	ldw	r3,180(sp)
  803dd8:	d8002785 	stb	zero,158(sp)
  803ddc:	1c000017 	ldw	r16,0(r3)
  803de0:	1cc00104 	addi	r19,r3,4
  803de4:	80041926 	beq	r16,zero,804e4c <___vfprintf_internal_r+0x1c90>
  803de8:	d9002917 	ldw	r4,164(sp)
  803dec:	2003d016 	blt	r4,zero,804d30 <___vfprintf_internal_r+0x1b74>
  803df0:	200d883a 	mov	r6,r4
  803df4:	000b883a 	mov	r5,zero
  803df8:	8009883a 	mov	r4,r16
  803dfc:	da003d15 	stw	r8,244(sp)
  803e00:	0807f4c0 	call	807f4c <memchr>
  803e04:	da003d17 	ldw	r8,244(sp)
  803e08:	10045426 	beq	r2,zero,804f5c <___vfprintf_internal_r+0x1da0>
  803e0c:	1405c83a 	sub	r2,r2,r16
  803e10:	d8802e15 	stw	r2,184(sp)
  803e14:	1003cc16 	blt	r2,zero,804d48 <___vfprintf_internal_r+0x1b8c>
  803e18:	df002783 	ldbu	fp,158(sp)
  803e1c:	d8802a15 	stw	r2,168(sp)
  803e20:	dcc02d15 	stw	r19,180(sp)
  803e24:	d8002915 	stw	zero,164(sp)
  803e28:	d8003215 	stw	zero,200(sp)
  803e2c:	003eb006 	br	8038f0 <__alt_mem_onchip_mem+0xff7fb8f0>
  803e30:	18c03fcc 	andi	r3,r3,255
  803e34:	183f9b26 	beq	r3,zero,803ca4 <__alt_mem_onchip_mem+0xff7fbca4>
  803e38:	d9c02785 	stb	r7,158(sp)
  803e3c:	003f9906 	br	803ca4 <__alt_mem_onchip_mem+0xff7fbca4>
  803e40:	18c03fcc 	andi	r3,r3,255
  803e44:	1805551e 	bne	r3,zero,80539c <___vfprintf_internal_r+0x21e0>
  803e48:	01402074 	movhi	r5,129
  803e4c:	294a8e04 	addi	r5,r5,10808
  803e50:	d9403915 	stw	r5,228(sp)
  803e54:	9080080c 	andi	r2,r18,32
  803e58:	103fae1e 	bne	r2,zero,803d14 <__alt_mem_onchip_mem+0xff7fbd14>
  803e5c:	9080040c 	andi	r2,r18,16
  803e60:	1002de26 	beq	r2,zero,8049dc <___vfprintf_internal_r+0x1820>
  803e64:	d8c02d17 	ldw	r3,180(sp)
  803e68:	002d883a 	mov	r22,zero
  803e6c:	1cc00017 	ldw	r19,0(r3)
  803e70:	18c00104 	addi	r3,r3,4
  803e74:	d8c02d15 	stw	r3,180(sp)
  803e78:	003fab06 	br	803d28 <__alt_mem_onchip_mem+0xff7fbd28>
  803e7c:	38803fcc 	andi	r2,r7,255
  803e80:	1080201c 	xori	r2,r2,128
  803e84:	10bfe004 	addi	r2,r2,-128
  803e88:	1002d21e 	bne	r2,zero,8049d4 <___vfprintf_internal_r+0x1818>
  803e8c:	00c00044 	movi	r3,1
  803e90:	01c00804 	movi	r7,32
  803e94:	ac400007 	ldb	r17,0(r21)
  803e98:	003d2906 	br	803340 <__alt_mem_onchip_mem+0xff7fb340>
  803e9c:	94800054 	ori	r18,r18,1
  803ea0:	ac400007 	ldb	r17,0(r21)
  803ea4:	003d2606 	br	803340 <__alt_mem_onchip_mem+0xff7fb340>
  803ea8:	18c03fcc 	andi	r3,r3,255
  803eac:	183e0526 	beq	r3,zero,8036c4 <__alt_mem_onchip_mem+0xff7fb6c4>
  803eb0:	d9c02785 	stb	r7,158(sp)
  803eb4:	003e0306 	br	8036c4 <__alt_mem_onchip_mem+0xff7fb6c4>
  803eb8:	94801014 	ori	r18,r18,64
  803ebc:	ac400007 	ldb	r17,0(r21)
  803ec0:	003d1f06 	br	803340 <__alt_mem_onchip_mem+0xff7fb340>
  803ec4:	ac400007 	ldb	r17,0(r21)
  803ec8:	8a438726 	beq	r17,r9,804ce8 <___vfprintf_internal_r+0x1b2c>
  803ecc:	94800414 	ori	r18,r18,16
  803ed0:	003d1b06 	br	803340 <__alt_mem_onchip_mem+0xff7fb340>
  803ed4:	18c03fcc 	andi	r3,r3,255
  803ed8:	1805341e 	bne	r3,zero,8053ac <___vfprintf_internal_r+0x21f0>
  803edc:	9080080c 	andi	r2,r18,32
  803ee0:	1002cd26 	beq	r2,zero,804a18 <___vfprintf_internal_r+0x185c>
  803ee4:	d9402d17 	ldw	r5,180(sp)
  803ee8:	d9002f17 	ldw	r4,188(sp)
  803eec:	28800017 	ldw	r2,0(r5)
  803ef0:	2007d7fa 	srai	r3,r4,31
  803ef4:	29400104 	addi	r5,r5,4
  803ef8:	d9402d15 	stw	r5,180(sp)
  803efc:	11000015 	stw	r4,0(r2)
  803f00:	10c00115 	stw	r3,4(r2)
  803f04:	003ce506 	br	80329c <__alt_mem_onchip_mem+0xff7fb29c>
  803f08:	d8c02d17 	ldw	r3,180(sp)
  803f0c:	d9002d17 	ldw	r4,180(sp)
  803f10:	d8002785 	stb	zero,158(sp)
  803f14:	18800017 	ldw	r2,0(r3)
  803f18:	21000104 	addi	r4,r4,4
  803f1c:	00c00044 	movi	r3,1
  803f20:	d8c02a15 	stw	r3,168(sp)
  803f24:	d8801405 	stb	r2,80(sp)
  803f28:	d9002d15 	stw	r4,180(sp)
  803f2c:	d8c02e15 	stw	r3,184(sp)
  803f30:	d8002915 	stw	zero,164(sp)
  803f34:	d8003215 	stw	zero,200(sp)
  803f38:	dc001404 	addi	r16,sp,80
  803f3c:	0039883a 	mov	fp,zero
  803f40:	003e7206 	br	80390c <__alt_mem_onchip_mem+0xff7fb90c>
  803f44:	01002074 	movhi	r4,129
  803f48:	210a8e04 	addi	r4,r4,10808
  803f4c:	0039883a 	mov	fp,zero
  803f50:	d9003915 	stw	r4,228(sp)
  803f54:	04401e04 	movi	r17,120
  803f58:	003f8206 	br	803d64 <__alt_mem_onchip_mem+0xff7fbd64>
  803f5c:	18c03fcc 	andi	r3,r3,255
  803f60:	1805061e 	bne	r3,zero,80537c <___vfprintf_internal_r+0x21c0>
  803f64:	883d9126 	beq	r17,zero,8035ac <__alt_mem_onchip_mem+0xff7fb5ac>
  803f68:	00c00044 	movi	r3,1
  803f6c:	d8c02a15 	stw	r3,168(sp)
  803f70:	dc401405 	stb	r17,80(sp)
  803f74:	d8002785 	stb	zero,158(sp)
  803f78:	003fec06 	br	803f2c <__alt_mem_onchip_mem+0xff7fbf2c>
  803f7c:	01402074 	movhi	r5,129
  803f80:	294a8e04 	addi	r5,r5,10808
  803f84:	d9403915 	stw	r5,228(sp)
  803f88:	d8c02d15 	stw	r3,180(sp)
  803f8c:	1025883a 	mov	r18,r2
  803f90:	04401e04 	movi	r17,120
  803f94:	9d84b03a 	or	r2,r19,r22
  803f98:	1000fc1e 	bne	r2,zero,80438c <___vfprintf_internal_r+0x11d0>
  803f9c:	0039883a 	mov	fp,zero
  803fa0:	00800084 	movi	r2,2
  803fa4:	10803fcc 	andi	r2,r2,255
  803fa8:	00c00044 	movi	r3,1
  803fac:	10c20f26 	beq	r2,r3,8047ec <___vfprintf_internal_r+0x1630>
  803fb0:	00c00084 	movi	r3,2
  803fb4:	10fd6326 	beq	r2,r3,803544 <__alt_mem_onchip_mem+0xff7fb544>
  803fb8:	003e2d06 	br	803870 <__alt_mem_onchip_mem+0xff7fb870>
  803fbc:	d8c02017 	ldw	r3,128(sp)
  803fc0:	003e9306 	br	803a10 <__alt_mem_onchip_mem+0xff7fba10>
  803fc4:	00801944 	movi	r2,101
  803fc8:	14407e0e 	bge	r2,r17,8041c4 <___vfprintf_internal_r+0x1008>
  803fcc:	d9003617 	ldw	r4,216(sp)
  803fd0:	d9403817 	ldw	r5,224(sp)
  803fd4:	000d883a 	mov	r6,zero
  803fd8:	000f883a 	mov	r7,zero
  803fdc:	d8c03c15 	stw	r3,240(sp)
  803fe0:	da003d15 	stw	r8,244(sp)
  803fe4:	080d1bc0 	call	80d1bc <__eqdf2>
  803fe8:	d8c03c17 	ldw	r3,240(sp)
  803fec:	da003d17 	ldw	r8,244(sp)
  803ff0:	1000f71e 	bne	r2,zero,8043d0 <___vfprintf_internal_r+0x1214>
  803ff4:	d8801f17 	ldw	r2,124(sp)
  803ff8:	01002074 	movhi	r4,129
  803ffc:	210a9504 	addi	r4,r4,10836
  804000:	18c00044 	addi	r3,r3,1
  804004:	10800044 	addi	r2,r2,1
  804008:	41000015 	stw	r4,0(r8)
  80400c:	01000044 	movi	r4,1
  804010:	41000115 	stw	r4,4(r8)
  804014:	d8c02015 	stw	r3,128(sp)
  804018:	d8801f15 	stw	r2,124(sp)
  80401c:	010001c4 	movi	r4,7
  804020:	2082b816 	blt	r4,r2,804b04 <___vfprintf_internal_r+0x1948>
  804024:	42000204 	addi	r8,r8,8
  804028:	d8802617 	ldw	r2,152(sp)
  80402c:	d9403317 	ldw	r5,204(sp)
  804030:	11400216 	blt	r2,r5,80403c <___vfprintf_internal_r+0xe80>
  804034:	9080004c 	andi	r2,r18,1
  804038:	103ed526 	beq	r2,zero,803b90 <__alt_mem_onchip_mem+0xff7fbb90>
  80403c:	d8803717 	ldw	r2,220(sp)
  804040:	d9003417 	ldw	r4,208(sp)
  804044:	d9403717 	ldw	r5,220(sp)
  804048:	1887883a 	add	r3,r3,r2
  80404c:	d8801f17 	ldw	r2,124(sp)
  804050:	41000015 	stw	r4,0(r8)
  804054:	41400115 	stw	r5,4(r8)
  804058:	10800044 	addi	r2,r2,1
  80405c:	d8c02015 	stw	r3,128(sp)
  804060:	d8801f15 	stw	r2,124(sp)
  804064:	010001c4 	movi	r4,7
  804068:	20832916 	blt	r4,r2,804d10 <___vfprintf_internal_r+0x1b54>
  80406c:	42000204 	addi	r8,r8,8
  804070:	d8803317 	ldw	r2,204(sp)
  804074:	143fffc4 	addi	r16,r2,-1
  804078:	043ec50e 	bge	zero,r16,803b90 <__alt_mem_onchip_mem+0xff7fbb90>
  80407c:	04400404 	movi	r17,16
  804080:	d8801f17 	ldw	r2,124(sp)
  804084:	8c00880e 	bge	r17,r16,8042a8 <___vfprintf_internal_r+0x10ec>
  804088:	01402074 	movhi	r5,129
  80408c:	294a9584 	addi	r5,r5,10838
  804090:	d9402b15 	stw	r5,172(sp)
  804094:	058001c4 	movi	r22,7
  804098:	dcc02c17 	ldw	r19,176(sp)
  80409c:	00000306 	br	8040ac <___vfprintf_internal_r+0xef0>
  8040a0:	42000204 	addi	r8,r8,8
  8040a4:	843ffc04 	addi	r16,r16,-16
  8040a8:	8c00820e 	bge	r17,r16,8042b4 <___vfprintf_internal_r+0x10f8>
  8040ac:	18c00404 	addi	r3,r3,16
  8040b0:	10800044 	addi	r2,r2,1
  8040b4:	45000015 	stw	r20,0(r8)
  8040b8:	44400115 	stw	r17,4(r8)
  8040bc:	d8c02015 	stw	r3,128(sp)
  8040c0:	d8801f15 	stw	r2,124(sp)
  8040c4:	b0bff60e 	bge	r22,r2,8040a0 <__alt_mem_onchip_mem+0xff7fc0a0>
  8040c8:	d9801e04 	addi	r6,sp,120
  8040cc:	b80b883a 	mov	r5,r23
  8040d0:	9809883a 	mov	r4,r19
  8040d4:	0809b780 	call	809b78 <__sprint_r>
  8040d8:	103d3a1e 	bne	r2,zero,8035c4 <__alt_mem_onchip_mem+0xff7fb5c4>
  8040dc:	d8c02017 	ldw	r3,128(sp)
  8040e0:	d8801f17 	ldw	r2,124(sp)
  8040e4:	da000404 	addi	r8,sp,16
  8040e8:	003fee06 	br	8040a4 <__alt_mem_onchip_mem+0xff7fc0a4>
  8040ec:	d9403117 	ldw	r5,196(sp)
  8040f0:	d8802a17 	ldw	r2,168(sp)
  8040f4:	28adc83a 	sub	r22,r5,r2
  8040f8:	05be630e 	bge	zero,r22,803a88 <__alt_mem_onchip_mem+0xff7fba88>
  8040fc:	07000404 	movi	fp,16
  804100:	d8801f17 	ldw	r2,124(sp)
  804104:	e5838f0e 	bge	fp,r22,804f44 <___vfprintf_internal_r+0x1d88>
  804108:	01402074 	movhi	r5,129
  80410c:	294a9584 	addi	r5,r5,10838
  804110:	dc403015 	stw	r17,192(sp)
  804114:	d9402b15 	stw	r5,172(sp)
  804118:	b023883a 	mov	r17,r22
  80411c:	04c001c4 	movi	r19,7
  804120:	a82d883a 	mov	r22,r21
  804124:	902b883a 	mov	r21,r18
  804128:	8025883a 	mov	r18,r16
  80412c:	dc002c17 	ldw	r16,176(sp)
  804130:	00000306 	br	804140 <___vfprintf_internal_r+0xf84>
  804134:	8c7ffc04 	addi	r17,r17,-16
  804138:	42000204 	addi	r8,r8,8
  80413c:	e440110e 	bge	fp,r17,804184 <___vfprintf_internal_r+0xfc8>
  804140:	18c00404 	addi	r3,r3,16
  804144:	10800044 	addi	r2,r2,1
  804148:	45000015 	stw	r20,0(r8)
  80414c:	47000115 	stw	fp,4(r8)
  804150:	d8c02015 	stw	r3,128(sp)
  804154:	d8801f15 	stw	r2,124(sp)
  804158:	98bff60e 	bge	r19,r2,804134 <__alt_mem_onchip_mem+0xff7fc134>
  80415c:	d9801e04 	addi	r6,sp,120
  804160:	b80b883a 	mov	r5,r23
  804164:	8009883a 	mov	r4,r16
  804168:	0809b780 	call	809b78 <__sprint_r>
  80416c:	103d151e 	bne	r2,zero,8035c4 <__alt_mem_onchip_mem+0xff7fb5c4>
  804170:	8c7ffc04 	addi	r17,r17,-16
  804174:	d8c02017 	ldw	r3,128(sp)
  804178:	d8801f17 	ldw	r2,124(sp)
  80417c:	da000404 	addi	r8,sp,16
  804180:	e47fef16 	blt	fp,r17,804140 <__alt_mem_onchip_mem+0xff7fc140>
  804184:	9021883a 	mov	r16,r18
  804188:	a825883a 	mov	r18,r21
  80418c:	b02b883a 	mov	r21,r22
  804190:	882d883a 	mov	r22,r17
  804194:	dc403017 	ldw	r17,192(sp)
  804198:	d9002b17 	ldw	r4,172(sp)
  80419c:	1d87883a 	add	r3,r3,r22
  8041a0:	10800044 	addi	r2,r2,1
  8041a4:	41000015 	stw	r4,0(r8)
  8041a8:	45800115 	stw	r22,4(r8)
  8041ac:	d8c02015 	stw	r3,128(sp)
  8041b0:	d8801f15 	stw	r2,124(sp)
  8041b4:	010001c4 	movi	r4,7
  8041b8:	20818e16 	blt	r4,r2,8047f4 <___vfprintf_internal_r+0x1638>
  8041bc:	42000204 	addi	r8,r8,8
  8041c0:	003e3106 	br	803a88 <__alt_mem_onchip_mem+0xff7fba88>
  8041c4:	d9403317 	ldw	r5,204(sp)
  8041c8:	00800044 	movi	r2,1
  8041cc:	18c00044 	addi	r3,r3,1
  8041d0:	1141530e 	bge	r2,r5,804720 <___vfprintf_internal_r+0x1564>
  8041d4:	dc401f17 	ldw	r17,124(sp)
  8041d8:	00800044 	movi	r2,1
  8041dc:	40800115 	stw	r2,4(r8)
  8041e0:	8c400044 	addi	r17,r17,1
  8041e4:	44000015 	stw	r16,0(r8)
  8041e8:	d8c02015 	stw	r3,128(sp)
  8041ec:	dc401f15 	stw	r17,124(sp)
  8041f0:	008001c4 	movi	r2,7
  8041f4:	14416b16 	blt	r2,r17,8047a4 <___vfprintf_internal_r+0x15e8>
  8041f8:	42000204 	addi	r8,r8,8
  8041fc:	d8803717 	ldw	r2,220(sp)
  804200:	d9003417 	ldw	r4,208(sp)
  804204:	8c400044 	addi	r17,r17,1
  804208:	10c7883a 	add	r3,r2,r3
  80420c:	40800115 	stw	r2,4(r8)
  804210:	41000015 	stw	r4,0(r8)
  804214:	d8c02015 	stw	r3,128(sp)
  804218:	dc401f15 	stw	r17,124(sp)
  80421c:	008001c4 	movi	r2,7
  804220:	14416916 	blt	r2,r17,8047c8 <___vfprintf_internal_r+0x160c>
  804224:	45800204 	addi	r22,r8,8
  804228:	d9003617 	ldw	r4,216(sp)
  80422c:	d9403817 	ldw	r5,224(sp)
  804230:	000d883a 	mov	r6,zero
  804234:	000f883a 	mov	r7,zero
  804238:	d8c03c15 	stw	r3,240(sp)
  80423c:	080d1bc0 	call	80d1bc <__eqdf2>
  804240:	d8c03c17 	ldw	r3,240(sp)
  804244:	1000bc26 	beq	r2,zero,804538 <___vfprintf_internal_r+0x137c>
  804248:	d9403317 	ldw	r5,204(sp)
  80424c:	84000044 	addi	r16,r16,1
  804250:	8c400044 	addi	r17,r17,1
  804254:	28bfffc4 	addi	r2,r5,-1
  804258:	1887883a 	add	r3,r3,r2
  80425c:	b0800115 	stw	r2,4(r22)
  804260:	b4000015 	stw	r16,0(r22)
  804264:	d8c02015 	stw	r3,128(sp)
  804268:	dc401f15 	stw	r17,124(sp)
  80426c:	008001c4 	movi	r2,7
  804270:	14414316 	blt	r2,r17,804780 <___vfprintf_internal_r+0x15c4>
  804274:	b5800204 	addi	r22,r22,8
  804278:	d9003a17 	ldw	r4,232(sp)
  80427c:	df0022c4 	addi	fp,sp,139
  804280:	8c400044 	addi	r17,r17,1
  804284:	20c7883a 	add	r3,r4,r3
  804288:	b7000015 	stw	fp,0(r22)
  80428c:	b1000115 	stw	r4,4(r22)
  804290:	d8c02015 	stw	r3,128(sp)
  804294:	dc401f15 	stw	r17,124(sp)
  804298:	008001c4 	movi	r2,7
  80429c:	14400e16 	blt	r2,r17,8042d8 <___vfprintf_internal_r+0x111c>
  8042a0:	b2000204 	addi	r8,r22,8
  8042a4:	003e3a06 	br	803b90 <__alt_mem_onchip_mem+0xff7fbb90>
  8042a8:	01002074 	movhi	r4,129
  8042ac:	210a9584 	addi	r4,r4,10838
  8042b0:	d9002b15 	stw	r4,172(sp)
  8042b4:	d9002b17 	ldw	r4,172(sp)
  8042b8:	1c07883a 	add	r3,r3,r16
  8042bc:	44000115 	stw	r16,4(r8)
  8042c0:	41000015 	stw	r4,0(r8)
  8042c4:	10800044 	addi	r2,r2,1
  8042c8:	d8c02015 	stw	r3,128(sp)
  8042cc:	d8801f15 	stw	r2,124(sp)
  8042d0:	010001c4 	movi	r4,7
  8042d4:	20be2d0e 	bge	r4,r2,803b8c <__alt_mem_onchip_mem+0xff7fbb8c>
  8042d8:	d9002c17 	ldw	r4,176(sp)
  8042dc:	d9801e04 	addi	r6,sp,120
  8042e0:	b80b883a 	mov	r5,r23
  8042e4:	0809b780 	call	809b78 <__sprint_r>
  8042e8:	103cb61e 	bne	r2,zero,8035c4 <__alt_mem_onchip_mem+0xff7fb5c4>
  8042ec:	d8c02017 	ldw	r3,128(sp)
  8042f0:	da000404 	addi	r8,sp,16
  8042f4:	003e2606 	br	803b90 <__alt_mem_onchip_mem+0xff7fbb90>
  8042f8:	d9002c17 	ldw	r4,176(sp)
  8042fc:	d9801e04 	addi	r6,sp,120
  804300:	b80b883a 	mov	r5,r23
  804304:	0809b780 	call	809b78 <__sprint_r>
  804308:	103e5d26 	beq	r2,zero,803c80 <__alt_mem_onchip_mem+0xff7fbc80>
  80430c:	003cad06 	br	8035c4 <__alt_mem_onchip_mem+0xff7fb5c4>
  804310:	d9002c17 	ldw	r4,176(sp)
  804314:	d9801e04 	addi	r6,sp,120
  804318:	b80b883a 	mov	r5,r23
  80431c:	0809b780 	call	809b78 <__sprint_r>
  804320:	103ca81e 	bne	r2,zero,8035c4 <__alt_mem_onchip_mem+0xff7fb5c4>
  804324:	d8c02017 	ldw	r3,128(sp)
  804328:	da000404 	addi	r8,sp,16
  80432c:	003e0b06 	br	803b5c <__alt_mem_onchip_mem+0xff7fbb5c>
  804330:	d9002c17 	ldw	r4,176(sp)
  804334:	d9801e04 	addi	r6,sp,120
  804338:	b80b883a 	mov	r5,r23
  80433c:	0809b780 	call	809b78 <__sprint_r>
  804340:	103ca01e 	bne	r2,zero,8035c4 <__alt_mem_onchip_mem+0xff7fb5c4>
  804344:	d8c02017 	ldw	r3,128(sp)
  804348:	da000404 	addi	r8,sp,16
  80434c:	003dbd06 	br	803a44 <__alt_mem_onchip_mem+0xff7fba44>
  804350:	d9002c17 	ldw	r4,176(sp)
  804354:	d9801e04 	addi	r6,sp,120
  804358:	b80b883a 	mov	r5,r23
  80435c:	0809b780 	call	809b78 <__sprint_r>
  804360:	103c981e 	bne	r2,zero,8035c4 <__alt_mem_onchip_mem+0xff7fb5c4>
  804364:	d8c02017 	ldw	r3,128(sp)
  804368:	da000404 	addi	r8,sp,16
  80436c:	003dc306 	br	803a7c <__alt_mem_onchip_mem+0xff7fba7c>
  804370:	d8802917 	ldw	r2,164(sp)
  804374:	d8002785 	stb	zero,158(sp)
  804378:	103f0616 	blt	r2,zero,803f94 <__alt_mem_onchip_mem+0xff7fbf94>
  80437c:	00ffdfc4 	movi	r3,-129
  804380:	9d84b03a 	or	r2,r19,r22
  804384:	90e4703a 	and	r18,r18,r3
  804388:	103c6b26 	beq	r2,zero,803538 <__alt_mem_onchip_mem+0xff7fb538>
  80438c:	0039883a 	mov	fp,zero
  804390:	003e7406 	br	803d64 <__alt_mem_onchip_mem+0xff7fbd64>
  804394:	9080040c 	andi	r2,r18,16
  804398:	1001b326 	beq	r2,zero,804a68 <___vfprintf_internal_r+0x18ac>
  80439c:	d9002d17 	ldw	r4,180(sp)
  8043a0:	d9402917 	ldw	r5,164(sp)
  8043a4:	d8002785 	stb	zero,158(sp)
  8043a8:	20800104 	addi	r2,r4,4
  8043ac:	24c00017 	ldw	r19,0(r4)
  8043b0:	002d883a 	mov	r22,zero
  8043b4:	2801b516 	blt	r5,zero,804a8c <___vfprintf_internal_r+0x18d0>
  8043b8:	00ffdfc4 	movi	r3,-129
  8043bc:	d8802d15 	stw	r2,180(sp)
  8043c0:	90e4703a 	and	r18,r18,r3
  8043c4:	983d2726 	beq	r19,zero,803864 <__alt_mem_onchip_mem+0xff7fb864>
  8043c8:	0039883a 	mov	fp,zero
  8043cc:	003d2a06 	br	803878 <__alt_mem_onchip_mem+0xff7fb878>
  8043d0:	dc402617 	ldw	r17,152(sp)
  8043d4:	0441d30e 	bge	zero,r17,804b24 <___vfprintf_internal_r+0x1968>
  8043d8:	dc403217 	ldw	r17,200(sp)
  8043dc:	d8803317 	ldw	r2,204(sp)
  8043e0:	1440010e 	bge	r2,r17,8043e8 <___vfprintf_internal_r+0x122c>
  8043e4:	1023883a 	mov	r17,r2
  8043e8:	04400a0e 	bge	zero,r17,804414 <___vfprintf_internal_r+0x1258>
  8043ec:	d8801f17 	ldw	r2,124(sp)
  8043f0:	1c47883a 	add	r3,r3,r17
  8043f4:	44000015 	stw	r16,0(r8)
  8043f8:	10800044 	addi	r2,r2,1
  8043fc:	44400115 	stw	r17,4(r8)
  804400:	d8c02015 	stw	r3,128(sp)
  804404:	d8801f15 	stw	r2,124(sp)
  804408:	010001c4 	movi	r4,7
  80440c:	20826516 	blt	r4,r2,804da4 <___vfprintf_internal_r+0x1be8>
  804410:	42000204 	addi	r8,r8,8
  804414:	88026116 	blt	r17,zero,804d9c <___vfprintf_internal_r+0x1be0>
  804418:	d9003217 	ldw	r4,200(sp)
  80441c:	2463c83a 	sub	r17,r4,r17
  804420:	04407b0e 	bge	zero,r17,804610 <___vfprintf_internal_r+0x1454>
  804424:	05800404 	movi	r22,16
  804428:	d8801f17 	ldw	r2,124(sp)
  80442c:	b4419d0e 	bge	r22,r17,804aa4 <___vfprintf_internal_r+0x18e8>
  804430:	01002074 	movhi	r4,129
  804434:	210a9584 	addi	r4,r4,10838
  804438:	d9002b15 	stw	r4,172(sp)
  80443c:	070001c4 	movi	fp,7
  804440:	dcc02c17 	ldw	r19,176(sp)
  804444:	00000306 	br	804454 <___vfprintf_internal_r+0x1298>
  804448:	42000204 	addi	r8,r8,8
  80444c:	8c7ffc04 	addi	r17,r17,-16
  804450:	b441970e 	bge	r22,r17,804ab0 <___vfprintf_internal_r+0x18f4>
  804454:	18c00404 	addi	r3,r3,16
  804458:	10800044 	addi	r2,r2,1
  80445c:	45000015 	stw	r20,0(r8)
  804460:	45800115 	stw	r22,4(r8)
  804464:	d8c02015 	stw	r3,128(sp)
  804468:	d8801f15 	stw	r2,124(sp)
  80446c:	e0bff60e 	bge	fp,r2,804448 <__alt_mem_onchip_mem+0xff7fc448>
  804470:	d9801e04 	addi	r6,sp,120
  804474:	b80b883a 	mov	r5,r23
  804478:	9809883a 	mov	r4,r19
  80447c:	0809b780 	call	809b78 <__sprint_r>
  804480:	103c501e 	bne	r2,zero,8035c4 <__alt_mem_onchip_mem+0xff7fb5c4>
  804484:	d8c02017 	ldw	r3,128(sp)
  804488:	d8801f17 	ldw	r2,124(sp)
  80448c:	da000404 	addi	r8,sp,16
  804490:	003fee06 	br	80444c <__alt_mem_onchip_mem+0xff7fc44c>
  804494:	d9002c17 	ldw	r4,176(sp)
  804498:	d9801e04 	addi	r6,sp,120
  80449c:	b80b883a 	mov	r5,r23
  8044a0:	0809b780 	call	809b78 <__sprint_r>
  8044a4:	103c471e 	bne	r2,zero,8035c4 <__alt_mem_onchip_mem+0xff7fb5c4>
  8044a8:	d8c02017 	ldw	r3,128(sp)
  8044ac:	df002787 	ldb	fp,158(sp)
  8044b0:	da000404 	addi	r8,sp,16
  8044b4:	003d5606 	br	803a10 <__alt_mem_onchip_mem+0xff7fba10>
  8044b8:	9080040c 	andi	r2,r18,16
  8044bc:	10016126 	beq	r2,zero,804a44 <___vfprintf_internal_r+0x1888>
  8044c0:	d8802d17 	ldw	r2,180(sp)
  8044c4:	14c00017 	ldw	r19,0(r2)
  8044c8:	10800104 	addi	r2,r2,4
  8044cc:	d8802d15 	stw	r2,180(sp)
  8044d0:	982dd7fa 	srai	r22,r19,31
  8044d4:	b005883a 	mov	r2,r22
  8044d8:	003c8206 	br	8036e4 <__alt_mem_onchip_mem+0xff7fb6e4>
  8044dc:	9080040c 	andi	r2,r18,16
  8044e0:	10003526 	beq	r2,zero,8045b8 <___vfprintf_internal_r+0x13fc>
  8044e4:	d9402d17 	ldw	r5,180(sp)
  8044e8:	d8c02917 	ldw	r3,164(sp)
  8044ec:	d8002785 	stb	zero,158(sp)
  8044f0:	28800104 	addi	r2,r5,4
  8044f4:	2cc00017 	ldw	r19,0(r5)
  8044f8:	002d883a 	mov	r22,zero
  8044fc:	18003716 	blt	r3,zero,8045dc <___vfprintf_internal_r+0x1420>
  804500:	00ffdfc4 	movi	r3,-129
  804504:	d8802d15 	stw	r2,180(sp)
  804508:	90e4703a 	and	r18,r18,r3
  80450c:	0039883a 	mov	fp,zero
  804510:	983df326 	beq	r19,zero,803ce0 <__alt_mem_onchip_mem+0xff7fbce0>
  804514:	00800244 	movi	r2,9
  804518:	14fc7b36 	bltu	r2,r19,803708 <__alt_mem_onchip_mem+0xff7fb708>
  80451c:	d8c02817 	ldw	r3,160(sp)
  804520:	dc001dc4 	addi	r16,sp,119
  804524:	9cc00c04 	addi	r19,r19,48
  804528:	1c07c83a 	sub	r3,r3,r16
  80452c:	dcc01dc5 	stb	r19,119(sp)
  804530:	d8c02e15 	stw	r3,184(sp)
  804534:	003ce806 	br	8038d8 <__alt_mem_onchip_mem+0xff7fb8d8>
  804538:	d8803317 	ldw	r2,204(sp)
  80453c:	143fffc4 	addi	r16,r2,-1
  804540:	043f4d0e 	bge	zero,r16,804278 <__alt_mem_onchip_mem+0xff7fc278>
  804544:	07000404 	movi	fp,16
  804548:	e400810e 	bge	fp,r16,804750 <___vfprintf_internal_r+0x1594>
  80454c:	01402074 	movhi	r5,129
  804550:	294a9584 	addi	r5,r5,10838
  804554:	d9402b15 	stw	r5,172(sp)
  804558:	01c001c4 	movi	r7,7
  80455c:	dcc02c17 	ldw	r19,176(sp)
  804560:	00000306 	br	804570 <___vfprintf_internal_r+0x13b4>
  804564:	b5800204 	addi	r22,r22,8
  804568:	843ffc04 	addi	r16,r16,-16
  80456c:	e4007b0e 	bge	fp,r16,80475c <___vfprintf_internal_r+0x15a0>
  804570:	18c00404 	addi	r3,r3,16
  804574:	8c400044 	addi	r17,r17,1
  804578:	b5000015 	stw	r20,0(r22)
  80457c:	b7000115 	stw	fp,4(r22)
  804580:	d8c02015 	stw	r3,128(sp)
  804584:	dc401f15 	stw	r17,124(sp)
  804588:	3c7ff60e 	bge	r7,r17,804564 <__alt_mem_onchip_mem+0xff7fc564>
  80458c:	d9801e04 	addi	r6,sp,120
  804590:	b80b883a 	mov	r5,r23
  804594:	9809883a 	mov	r4,r19
  804598:	d9c03c15 	stw	r7,240(sp)
  80459c:	0809b780 	call	809b78 <__sprint_r>
  8045a0:	d9c03c17 	ldw	r7,240(sp)
  8045a4:	103c071e 	bne	r2,zero,8035c4 <__alt_mem_onchip_mem+0xff7fb5c4>
  8045a8:	d8c02017 	ldw	r3,128(sp)
  8045ac:	dc401f17 	ldw	r17,124(sp)
  8045b0:	dd800404 	addi	r22,sp,16
  8045b4:	003fec06 	br	804568 <__alt_mem_onchip_mem+0xff7fc568>
  8045b8:	9080100c 	andi	r2,r18,64
  8045bc:	d8002785 	stb	zero,158(sp)
  8045c0:	10010e26 	beq	r2,zero,8049fc <___vfprintf_internal_r+0x1840>
  8045c4:	d9002d17 	ldw	r4,180(sp)
  8045c8:	d9402917 	ldw	r5,164(sp)
  8045cc:	002d883a 	mov	r22,zero
  8045d0:	20800104 	addi	r2,r4,4
  8045d4:	24c0000b 	ldhu	r19,0(r4)
  8045d8:	283fc90e 	bge	r5,zero,804500 <__alt_mem_onchip_mem+0xff7fc500>
  8045dc:	d8802d15 	stw	r2,180(sp)
  8045e0:	0039883a 	mov	fp,zero
  8045e4:	9d84b03a 	or	r2,r19,r22
  8045e8:	103c461e 	bne	r2,zero,803704 <__alt_mem_onchip_mem+0xff7fb704>
  8045ec:	00800044 	movi	r2,1
  8045f0:	003e6c06 	br	803fa4 <__alt_mem_onchip_mem+0xff7fbfa4>
  8045f4:	d9002c17 	ldw	r4,176(sp)
  8045f8:	d9801e04 	addi	r6,sp,120
  8045fc:	b80b883a 	mov	r5,r23
  804600:	0809b780 	call	809b78 <__sprint_r>
  804604:	103bef1e 	bne	r2,zero,8035c4 <__alt_mem_onchip_mem+0xff7fb5c4>
  804608:	d8c02017 	ldw	r3,128(sp)
  80460c:	da000404 	addi	r8,sp,16
  804610:	d9003217 	ldw	r4,200(sp)
  804614:	d8802617 	ldw	r2,152(sp)
  804618:	d9403317 	ldw	r5,204(sp)
  80461c:	8123883a 	add	r17,r16,r4
  804620:	11400216 	blt	r2,r5,80462c <___vfprintf_internal_r+0x1470>
  804624:	9100004c 	andi	r4,r18,1
  804628:	20000d26 	beq	r4,zero,804660 <___vfprintf_internal_r+0x14a4>
  80462c:	d9003717 	ldw	r4,220(sp)
  804630:	d9403417 	ldw	r5,208(sp)
  804634:	1907883a 	add	r3,r3,r4
  804638:	d9001f17 	ldw	r4,124(sp)
  80463c:	41400015 	stw	r5,0(r8)
  804640:	d9403717 	ldw	r5,220(sp)
  804644:	21000044 	addi	r4,r4,1
  804648:	d8c02015 	stw	r3,128(sp)
  80464c:	41400115 	stw	r5,4(r8)
  804650:	d9001f15 	stw	r4,124(sp)
  804654:	014001c4 	movi	r5,7
  804658:	2901e816 	blt	r5,r4,804dfc <___vfprintf_internal_r+0x1c40>
  80465c:	42000204 	addi	r8,r8,8
  804660:	d9003317 	ldw	r4,204(sp)
  804664:	8121883a 	add	r16,r16,r4
  804668:	2085c83a 	sub	r2,r4,r2
  80466c:	8461c83a 	sub	r16,r16,r17
  804670:	1400010e 	bge	r2,r16,804678 <___vfprintf_internal_r+0x14bc>
  804674:	1021883a 	mov	r16,r2
  804678:	04000a0e 	bge	zero,r16,8046a4 <___vfprintf_internal_r+0x14e8>
  80467c:	d9001f17 	ldw	r4,124(sp)
  804680:	1c07883a 	add	r3,r3,r16
  804684:	44400015 	stw	r17,0(r8)
  804688:	21000044 	addi	r4,r4,1
  80468c:	44000115 	stw	r16,4(r8)
  804690:	d8c02015 	stw	r3,128(sp)
  804694:	d9001f15 	stw	r4,124(sp)
  804698:	014001c4 	movi	r5,7
  80469c:	2901fb16 	blt	r5,r4,804e8c <___vfprintf_internal_r+0x1cd0>
  8046a0:	42000204 	addi	r8,r8,8
  8046a4:	8001f716 	blt	r16,zero,804e84 <___vfprintf_internal_r+0x1cc8>
  8046a8:	1421c83a 	sub	r16,r2,r16
  8046ac:	043d380e 	bge	zero,r16,803b90 <__alt_mem_onchip_mem+0xff7fbb90>
  8046b0:	04400404 	movi	r17,16
  8046b4:	d8801f17 	ldw	r2,124(sp)
  8046b8:	8c3efb0e 	bge	r17,r16,8042a8 <__alt_mem_onchip_mem+0xff7fc2a8>
  8046bc:	01402074 	movhi	r5,129
  8046c0:	294a9584 	addi	r5,r5,10838
  8046c4:	d9402b15 	stw	r5,172(sp)
  8046c8:	058001c4 	movi	r22,7
  8046cc:	dcc02c17 	ldw	r19,176(sp)
  8046d0:	00000306 	br	8046e0 <___vfprintf_internal_r+0x1524>
  8046d4:	42000204 	addi	r8,r8,8
  8046d8:	843ffc04 	addi	r16,r16,-16
  8046dc:	8c3ef50e 	bge	r17,r16,8042b4 <__alt_mem_onchip_mem+0xff7fc2b4>
  8046e0:	18c00404 	addi	r3,r3,16
  8046e4:	10800044 	addi	r2,r2,1
  8046e8:	45000015 	stw	r20,0(r8)
  8046ec:	44400115 	stw	r17,4(r8)
  8046f0:	d8c02015 	stw	r3,128(sp)
  8046f4:	d8801f15 	stw	r2,124(sp)
  8046f8:	b0bff60e 	bge	r22,r2,8046d4 <__alt_mem_onchip_mem+0xff7fc6d4>
  8046fc:	d9801e04 	addi	r6,sp,120
  804700:	b80b883a 	mov	r5,r23
  804704:	9809883a 	mov	r4,r19
  804708:	0809b780 	call	809b78 <__sprint_r>
  80470c:	103bad1e 	bne	r2,zero,8035c4 <__alt_mem_onchip_mem+0xff7fb5c4>
  804710:	d8c02017 	ldw	r3,128(sp)
  804714:	d8801f17 	ldw	r2,124(sp)
  804718:	da000404 	addi	r8,sp,16
  80471c:	003fee06 	br	8046d8 <__alt_mem_onchip_mem+0xff7fc6d8>
  804720:	9088703a 	and	r4,r18,r2
  804724:	203eab1e 	bne	r4,zero,8041d4 <__alt_mem_onchip_mem+0xff7fc1d4>
  804728:	dc401f17 	ldw	r17,124(sp)
  80472c:	40800115 	stw	r2,4(r8)
  804730:	44000015 	stw	r16,0(r8)
  804734:	8c400044 	addi	r17,r17,1
  804738:	d8c02015 	stw	r3,128(sp)
  80473c:	dc401f15 	stw	r17,124(sp)
  804740:	008001c4 	movi	r2,7
  804744:	14400e16 	blt	r2,r17,804780 <___vfprintf_internal_r+0x15c4>
  804748:	45800204 	addi	r22,r8,8
  80474c:	003eca06 	br	804278 <__alt_mem_onchip_mem+0xff7fc278>
  804750:	01002074 	movhi	r4,129
  804754:	210a9584 	addi	r4,r4,10838
  804758:	d9002b15 	stw	r4,172(sp)
  80475c:	d8802b17 	ldw	r2,172(sp)
  804760:	1c07883a 	add	r3,r3,r16
  804764:	8c400044 	addi	r17,r17,1
  804768:	b0800015 	stw	r2,0(r22)
  80476c:	b4000115 	stw	r16,4(r22)
  804770:	d8c02015 	stw	r3,128(sp)
  804774:	dc401f15 	stw	r17,124(sp)
  804778:	008001c4 	movi	r2,7
  80477c:	147ebd0e 	bge	r2,r17,804274 <__alt_mem_onchip_mem+0xff7fc274>
  804780:	d9002c17 	ldw	r4,176(sp)
  804784:	d9801e04 	addi	r6,sp,120
  804788:	b80b883a 	mov	r5,r23
  80478c:	0809b780 	call	809b78 <__sprint_r>
  804790:	103b8c1e 	bne	r2,zero,8035c4 <__alt_mem_onchip_mem+0xff7fb5c4>
  804794:	d8c02017 	ldw	r3,128(sp)
  804798:	dc401f17 	ldw	r17,124(sp)
  80479c:	dd800404 	addi	r22,sp,16
  8047a0:	003eb506 	br	804278 <__alt_mem_onchip_mem+0xff7fc278>
  8047a4:	d9002c17 	ldw	r4,176(sp)
  8047a8:	d9801e04 	addi	r6,sp,120
  8047ac:	b80b883a 	mov	r5,r23
  8047b0:	0809b780 	call	809b78 <__sprint_r>
  8047b4:	103b831e 	bne	r2,zero,8035c4 <__alt_mem_onchip_mem+0xff7fb5c4>
  8047b8:	d8c02017 	ldw	r3,128(sp)
  8047bc:	dc401f17 	ldw	r17,124(sp)
  8047c0:	da000404 	addi	r8,sp,16
  8047c4:	003e8d06 	br	8041fc <__alt_mem_onchip_mem+0xff7fc1fc>
  8047c8:	d9002c17 	ldw	r4,176(sp)
  8047cc:	d9801e04 	addi	r6,sp,120
  8047d0:	b80b883a 	mov	r5,r23
  8047d4:	0809b780 	call	809b78 <__sprint_r>
  8047d8:	103b7a1e 	bne	r2,zero,8035c4 <__alt_mem_onchip_mem+0xff7fb5c4>
  8047dc:	d8c02017 	ldw	r3,128(sp)
  8047e0:	dc401f17 	ldw	r17,124(sp)
  8047e4:	dd800404 	addi	r22,sp,16
  8047e8:	003e8f06 	br	804228 <__alt_mem_onchip_mem+0xff7fc228>
  8047ec:	0027883a 	mov	r19,zero
  8047f0:	003f4a06 	br	80451c <__alt_mem_onchip_mem+0xff7fc51c>
  8047f4:	d9002c17 	ldw	r4,176(sp)
  8047f8:	d9801e04 	addi	r6,sp,120
  8047fc:	b80b883a 	mov	r5,r23
  804800:	0809b780 	call	809b78 <__sprint_r>
  804804:	103b6f1e 	bne	r2,zero,8035c4 <__alt_mem_onchip_mem+0xff7fb5c4>
  804808:	d8c02017 	ldw	r3,128(sp)
  80480c:	da000404 	addi	r8,sp,16
  804810:	003c9d06 	br	803a88 <__alt_mem_onchip_mem+0xff7fba88>
  804814:	04e7c83a 	sub	r19,zero,r19
  804818:	9804c03a 	cmpne	r2,r19,zero
  80481c:	05adc83a 	sub	r22,zero,r22
  804820:	b0adc83a 	sub	r22,r22,r2
  804824:	d8802917 	ldw	r2,164(sp)
  804828:	07000b44 	movi	fp,45
  80482c:	df002785 	stb	fp,158(sp)
  804830:	10017b16 	blt	r2,zero,804e20 <___vfprintf_internal_r+0x1c64>
  804834:	00bfdfc4 	movi	r2,-129
  804838:	90a4703a 	and	r18,r18,r2
  80483c:	003bb106 	br	803704 <__alt_mem_onchip_mem+0xff7fb704>
  804840:	d9003617 	ldw	r4,216(sp)
  804844:	d9403817 	ldw	r5,224(sp)
  804848:	da003d15 	stw	r8,244(sp)
  80484c:	08098940 	call	809894 <__fpclassifyd>
  804850:	da003d17 	ldw	r8,244(sp)
  804854:	1000f026 	beq	r2,zero,804c18 <___vfprintf_internal_r+0x1a5c>
  804858:	d9002917 	ldw	r4,164(sp)
  80485c:	05bff7c4 	movi	r22,-33
  804860:	00bfffc4 	movi	r2,-1
  804864:	8dac703a 	and	r22,r17,r22
  804868:	20820026 	beq	r4,r2,80506c <___vfprintf_internal_r+0x1eb0>
  80486c:	008011c4 	movi	r2,71
  804870:	b081f726 	beq	r22,r2,805050 <___vfprintf_internal_r+0x1e94>
  804874:	d9003817 	ldw	r4,224(sp)
  804878:	90c04014 	ori	r3,r18,256
  80487c:	d8c02b15 	stw	r3,172(sp)
  804880:	20021516 	blt	r4,zero,8050d8 <___vfprintf_internal_r+0x1f1c>
  804884:	dcc03817 	ldw	r19,224(sp)
  804888:	d8002a05 	stb	zero,168(sp)
  80488c:	00801984 	movi	r2,102
  804890:	8881f926 	beq	r17,r2,805078 <___vfprintf_internal_r+0x1ebc>
  804894:	00801184 	movi	r2,70
  804898:	88821c26 	beq	r17,r2,80510c <___vfprintf_internal_r+0x1f50>
  80489c:	00801144 	movi	r2,69
  8048a0:	b081ef26 	beq	r22,r2,805060 <___vfprintf_internal_r+0x1ea4>
  8048a4:	d8c02917 	ldw	r3,164(sp)
  8048a8:	d8802104 	addi	r2,sp,132
  8048ac:	d8800315 	stw	r2,12(sp)
  8048b0:	d9403617 	ldw	r5,216(sp)
  8048b4:	d8802504 	addi	r2,sp,148
  8048b8:	d9002c17 	ldw	r4,176(sp)
  8048bc:	d8800215 	stw	r2,8(sp)
  8048c0:	d8802604 	addi	r2,sp,152
  8048c4:	d8c00015 	stw	r3,0(sp)
  8048c8:	d8800115 	stw	r2,4(sp)
  8048cc:	01c00084 	movi	r7,2
  8048d0:	980d883a 	mov	r6,r19
  8048d4:	d8c03c15 	stw	r3,240(sp)
  8048d8:	da003d15 	stw	r8,244(sp)
  8048dc:	08059ec0 	call	8059ec <_dtoa_r>
  8048e0:	1021883a 	mov	r16,r2
  8048e4:	008019c4 	movi	r2,103
  8048e8:	d8c03c17 	ldw	r3,240(sp)
  8048ec:	da003d17 	ldw	r8,244(sp)
  8048f0:	88817126 	beq	r17,r2,804eb8 <___vfprintf_internal_r+0x1cfc>
  8048f4:	008011c4 	movi	r2,71
  8048f8:	88829226 	beq	r17,r2,805344 <___vfprintf_internal_r+0x2188>
  8048fc:	80f9883a 	add	fp,r16,r3
  804900:	d9003617 	ldw	r4,216(sp)
  804904:	000d883a 	mov	r6,zero
  804908:	000f883a 	mov	r7,zero
  80490c:	980b883a 	mov	r5,r19
  804910:	da003d15 	stw	r8,244(sp)
  804914:	080d1bc0 	call	80d1bc <__eqdf2>
  804918:	da003d17 	ldw	r8,244(sp)
  80491c:	10018d26 	beq	r2,zero,804f54 <___vfprintf_internal_r+0x1d98>
  804920:	d8802117 	ldw	r2,132(sp)
  804924:	1700062e 	bgeu	r2,fp,804940 <___vfprintf_internal_r+0x1784>
  804928:	01000c04 	movi	r4,48
  80492c:	10c00044 	addi	r3,r2,1
  804930:	d8c02115 	stw	r3,132(sp)
  804934:	11000005 	stb	r4,0(r2)
  804938:	d8802117 	ldw	r2,132(sp)
  80493c:	173ffb36 	bltu	r2,fp,80492c <__alt_mem_onchip_mem+0xff7fc92c>
  804940:	1405c83a 	sub	r2,r2,r16
  804944:	d8803315 	stw	r2,204(sp)
  804948:	008011c4 	movi	r2,71
  80494c:	b0817626 	beq	r22,r2,804f28 <___vfprintf_internal_r+0x1d6c>
  804950:	00801944 	movi	r2,101
  804954:	1442810e 	bge	r2,r17,80535c <___vfprintf_internal_r+0x21a0>
  804958:	d8c02617 	ldw	r3,152(sp)
  80495c:	00801984 	movi	r2,102
  804960:	d8c03215 	stw	r3,200(sp)
  804964:	8881fe26 	beq	r17,r2,805160 <___vfprintf_internal_r+0x1fa4>
  804968:	d8c03217 	ldw	r3,200(sp)
  80496c:	d9003317 	ldw	r4,204(sp)
  804970:	1901dd16 	blt	r3,r4,8050e8 <___vfprintf_internal_r+0x1f2c>
  804974:	9480004c 	andi	r18,r18,1
  804978:	90022b1e 	bne	r18,zero,805228 <___vfprintf_internal_r+0x206c>
  80497c:	1805883a 	mov	r2,r3
  804980:	18028016 	blt	r3,zero,805384 <___vfprintf_internal_r+0x21c8>
  804984:	d8c03217 	ldw	r3,200(sp)
  804988:	044019c4 	movi	r17,103
  80498c:	d8c02e15 	stw	r3,184(sp)
  804990:	df002a07 	ldb	fp,168(sp)
  804994:	e001531e 	bne	fp,zero,804ee4 <___vfprintf_internal_r+0x1d28>
  804998:	df002783 	ldbu	fp,158(sp)
  80499c:	d8802a15 	stw	r2,168(sp)
  8049a0:	dc802b17 	ldw	r18,172(sp)
  8049a4:	d8002915 	stw	zero,164(sp)
  8049a8:	003bd106 	br	8038f0 <__alt_mem_onchip_mem+0xff7fb8f0>
  8049ac:	d8802d17 	ldw	r2,180(sp)
  8049b0:	d8c02d17 	ldw	r3,180(sp)
  8049b4:	d9002d17 	ldw	r4,180(sp)
  8049b8:	10800017 	ldw	r2,0(r2)
  8049bc:	18c00117 	ldw	r3,4(r3)
  8049c0:	21000204 	addi	r4,r4,8
  8049c4:	d8803615 	stw	r2,216(sp)
  8049c8:	d8c03815 	stw	r3,224(sp)
  8049cc:	d9002d15 	stw	r4,180(sp)
  8049d0:	003b7506 	br	8037a8 <__alt_mem_onchip_mem+0xff7fb7a8>
  8049d4:	ac400007 	ldb	r17,0(r21)
  8049d8:	003a5906 	br	803340 <__alt_mem_onchip_mem+0xff7fb340>
  8049dc:	9080100c 	andi	r2,r18,64
  8049e0:	1000a826 	beq	r2,zero,804c84 <___vfprintf_internal_r+0x1ac8>
  8049e4:	d9002d17 	ldw	r4,180(sp)
  8049e8:	002d883a 	mov	r22,zero
  8049ec:	24c0000b 	ldhu	r19,0(r4)
  8049f0:	21000104 	addi	r4,r4,4
  8049f4:	d9002d15 	stw	r4,180(sp)
  8049f8:	003ccb06 	br	803d28 <__alt_mem_onchip_mem+0xff7fbd28>
  8049fc:	d8c02d17 	ldw	r3,180(sp)
  804a00:	d9002917 	ldw	r4,164(sp)
  804a04:	002d883a 	mov	r22,zero
  804a08:	18800104 	addi	r2,r3,4
  804a0c:	1cc00017 	ldw	r19,0(r3)
  804a10:	203ebb0e 	bge	r4,zero,804500 <__alt_mem_onchip_mem+0xff7fc500>
  804a14:	003ef106 	br	8045dc <__alt_mem_onchip_mem+0xff7fc5dc>
  804a18:	9080040c 	andi	r2,r18,16
  804a1c:	1000921e 	bne	r2,zero,804c68 <___vfprintf_internal_r+0x1aac>
  804a20:	9480100c 	andi	r18,r18,64
  804a24:	90013926 	beq	r18,zero,804f0c <___vfprintf_internal_r+0x1d50>
  804a28:	d9002d17 	ldw	r4,180(sp)
  804a2c:	d9402f17 	ldw	r5,188(sp)
  804a30:	20800017 	ldw	r2,0(r4)
  804a34:	21000104 	addi	r4,r4,4
  804a38:	d9002d15 	stw	r4,180(sp)
  804a3c:	1140000d 	sth	r5,0(r2)
  804a40:	003a1606 	br	80329c <__alt_mem_onchip_mem+0xff7fb29c>
  804a44:	9080100c 	andi	r2,r18,64
  804a48:	10008026 	beq	r2,zero,804c4c <___vfprintf_internal_r+0x1a90>
  804a4c:	d8c02d17 	ldw	r3,180(sp)
  804a50:	1cc0000f 	ldh	r19,0(r3)
  804a54:	18c00104 	addi	r3,r3,4
  804a58:	d8c02d15 	stw	r3,180(sp)
  804a5c:	982dd7fa 	srai	r22,r19,31
  804a60:	b005883a 	mov	r2,r22
  804a64:	003b1f06 	br	8036e4 <__alt_mem_onchip_mem+0xff7fb6e4>
  804a68:	9080100c 	andi	r2,r18,64
  804a6c:	d8002785 	stb	zero,158(sp)
  804a70:	10008a1e 	bne	r2,zero,804c9c <___vfprintf_internal_r+0x1ae0>
  804a74:	d9402d17 	ldw	r5,180(sp)
  804a78:	d8c02917 	ldw	r3,164(sp)
  804a7c:	002d883a 	mov	r22,zero
  804a80:	28800104 	addi	r2,r5,4
  804a84:	2cc00017 	ldw	r19,0(r5)
  804a88:	183e4b0e 	bge	r3,zero,8043b8 <__alt_mem_onchip_mem+0xff7fc3b8>
  804a8c:	9d86b03a 	or	r3,r19,r22
  804a90:	d8802d15 	stw	r2,180(sp)
  804a94:	183e4c1e 	bne	r3,zero,8043c8 <__alt_mem_onchip_mem+0xff7fc3c8>
  804a98:	0039883a 	mov	fp,zero
  804a9c:	0005883a 	mov	r2,zero
  804aa0:	003d4006 	br	803fa4 <__alt_mem_onchip_mem+0xff7fbfa4>
  804aa4:	01402074 	movhi	r5,129
  804aa8:	294a9584 	addi	r5,r5,10838
  804aac:	d9402b15 	stw	r5,172(sp)
  804ab0:	d9402b17 	ldw	r5,172(sp)
  804ab4:	1c47883a 	add	r3,r3,r17
  804ab8:	10800044 	addi	r2,r2,1
  804abc:	41400015 	stw	r5,0(r8)
  804ac0:	44400115 	stw	r17,4(r8)
  804ac4:	d8c02015 	stw	r3,128(sp)
  804ac8:	d8801f15 	stw	r2,124(sp)
  804acc:	010001c4 	movi	r4,7
  804ad0:	20bec816 	blt	r4,r2,8045f4 <__alt_mem_onchip_mem+0xff7fc5f4>
  804ad4:	42000204 	addi	r8,r8,8
  804ad8:	003ecd06 	br	804610 <__alt_mem_onchip_mem+0xff7fc610>
  804adc:	d9002917 	ldw	r4,164(sp)
  804ae0:	d8002785 	stb	zero,158(sp)
  804ae4:	203d2d16 	blt	r4,zero,803f9c <__alt_mem_onchip_mem+0xff7fbf9c>
  804ae8:	00bfdfc4 	movi	r2,-129
  804aec:	90a4703a 	and	r18,r18,r2
  804af0:	003a9106 	br	803538 <__alt_mem_onchip_mem+0xff7fb538>
  804af4:	01002074 	movhi	r4,129
  804af8:	210a9584 	addi	r4,r4,10838
  804afc:	d9002b15 	stw	r4,172(sp)
  804b00:	003c0c06 	br	803b34 <__alt_mem_onchip_mem+0xff7fbb34>
  804b04:	d9002c17 	ldw	r4,176(sp)
  804b08:	d9801e04 	addi	r6,sp,120
  804b0c:	b80b883a 	mov	r5,r23
  804b10:	0809b780 	call	809b78 <__sprint_r>
  804b14:	103aab1e 	bne	r2,zero,8035c4 <__alt_mem_onchip_mem+0xff7fb5c4>
  804b18:	d8c02017 	ldw	r3,128(sp)
  804b1c:	da000404 	addi	r8,sp,16
  804b20:	003d4106 	br	804028 <__alt_mem_onchip_mem+0xff7fc028>
  804b24:	d8801f17 	ldw	r2,124(sp)
  804b28:	01402074 	movhi	r5,129
  804b2c:	01000044 	movi	r4,1
  804b30:	18c00044 	addi	r3,r3,1
  804b34:	10800044 	addi	r2,r2,1
  804b38:	294a9504 	addi	r5,r5,10836
  804b3c:	41000115 	stw	r4,4(r8)
  804b40:	41400015 	stw	r5,0(r8)
  804b44:	d8c02015 	stw	r3,128(sp)
  804b48:	d8801f15 	stw	r2,124(sp)
  804b4c:	010001c4 	movi	r4,7
  804b50:	20805c16 	blt	r4,r2,804cc4 <___vfprintf_internal_r+0x1b08>
  804b54:	42000204 	addi	r8,r8,8
  804b58:	8800041e 	bne	r17,zero,804b6c <___vfprintf_internal_r+0x19b0>
  804b5c:	d8803317 	ldw	r2,204(sp)
  804b60:	1000021e 	bne	r2,zero,804b6c <___vfprintf_internal_r+0x19b0>
  804b64:	9080004c 	andi	r2,r18,1
  804b68:	103c0926 	beq	r2,zero,803b90 <__alt_mem_onchip_mem+0xff7fbb90>
  804b6c:	d9003717 	ldw	r4,220(sp)
  804b70:	d8801f17 	ldw	r2,124(sp)
  804b74:	d9403417 	ldw	r5,208(sp)
  804b78:	20c7883a 	add	r3,r4,r3
  804b7c:	10800044 	addi	r2,r2,1
  804b80:	41000115 	stw	r4,4(r8)
  804b84:	41400015 	stw	r5,0(r8)
  804b88:	d8c02015 	stw	r3,128(sp)
  804b8c:	d8801f15 	stw	r2,124(sp)
  804b90:	010001c4 	movi	r4,7
  804b94:	20812116 	blt	r4,r2,80501c <___vfprintf_internal_r+0x1e60>
  804b98:	42000204 	addi	r8,r8,8
  804b9c:	0463c83a 	sub	r17,zero,r17
  804ba0:	0440730e 	bge	zero,r17,804d70 <___vfprintf_internal_r+0x1bb4>
  804ba4:	05800404 	movi	r22,16
  804ba8:	b440860e 	bge	r22,r17,804dc4 <___vfprintf_internal_r+0x1c08>
  804bac:	01402074 	movhi	r5,129
  804bb0:	294a9584 	addi	r5,r5,10838
  804bb4:	d9402b15 	stw	r5,172(sp)
  804bb8:	070001c4 	movi	fp,7
  804bbc:	dcc02c17 	ldw	r19,176(sp)
  804bc0:	00000306 	br	804bd0 <___vfprintf_internal_r+0x1a14>
  804bc4:	42000204 	addi	r8,r8,8
  804bc8:	8c7ffc04 	addi	r17,r17,-16
  804bcc:	b440800e 	bge	r22,r17,804dd0 <___vfprintf_internal_r+0x1c14>
  804bd0:	18c00404 	addi	r3,r3,16
  804bd4:	10800044 	addi	r2,r2,1
  804bd8:	45000015 	stw	r20,0(r8)
  804bdc:	45800115 	stw	r22,4(r8)
  804be0:	d8c02015 	stw	r3,128(sp)
  804be4:	d8801f15 	stw	r2,124(sp)
  804be8:	e0bff60e 	bge	fp,r2,804bc4 <__alt_mem_onchip_mem+0xff7fcbc4>
  804bec:	d9801e04 	addi	r6,sp,120
  804bf0:	b80b883a 	mov	r5,r23
  804bf4:	9809883a 	mov	r4,r19
  804bf8:	0809b780 	call	809b78 <__sprint_r>
  804bfc:	103a711e 	bne	r2,zero,8035c4 <__alt_mem_onchip_mem+0xff7fb5c4>
  804c00:	d8c02017 	ldw	r3,128(sp)
  804c04:	d8801f17 	ldw	r2,124(sp)
  804c08:	da000404 	addi	r8,sp,16
  804c0c:	003fee06 	br	804bc8 <__alt_mem_onchip_mem+0xff7fcbc8>
  804c10:	00bfffc4 	movi	r2,-1
  804c14:	003a6f06 	br	8035d4 <__alt_mem_onchip_mem+0xff7fb5d4>
  804c18:	008011c4 	movi	r2,71
  804c1c:	1440b816 	blt	r2,r17,804f00 <___vfprintf_internal_r+0x1d44>
  804c20:	04002074 	movhi	r16,129
  804c24:	840a8704 	addi	r16,r16,10780
  804c28:	00c000c4 	movi	r3,3
  804c2c:	00bfdfc4 	movi	r2,-129
  804c30:	d8c02a15 	stw	r3,168(sp)
  804c34:	90a4703a 	and	r18,r18,r2
  804c38:	df002783 	ldbu	fp,158(sp)
  804c3c:	d8c02e15 	stw	r3,184(sp)
  804c40:	d8002915 	stw	zero,164(sp)
  804c44:	d8003215 	stw	zero,200(sp)
  804c48:	003b2906 	br	8038f0 <__alt_mem_onchip_mem+0xff7fb8f0>
  804c4c:	d9002d17 	ldw	r4,180(sp)
  804c50:	24c00017 	ldw	r19,0(r4)
  804c54:	21000104 	addi	r4,r4,4
  804c58:	d9002d15 	stw	r4,180(sp)
  804c5c:	982dd7fa 	srai	r22,r19,31
  804c60:	b005883a 	mov	r2,r22
  804c64:	003a9f06 	br	8036e4 <__alt_mem_onchip_mem+0xff7fb6e4>
  804c68:	d9402d17 	ldw	r5,180(sp)
  804c6c:	d8c02f17 	ldw	r3,188(sp)
  804c70:	28800017 	ldw	r2,0(r5)
  804c74:	29400104 	addi	r5,r5,4
  804c78:	d9402d15 	stw	r5,180(sp)
  804c7c:	10c00015 	stw	r3,0(r2)
  804c80:	00398606 	br	80329c <__alt_mem_onchip_mem+0xff7fb29c>
  804c84:	d9402d17 	ldw	r5,180(sp)
  804c88:	002d883a 	mov	r22,zero
  804c8c:	2cc00017 	ldw	r19,0(r5)
  804c90:	29400104 	addi	r5,r5,4
  804c94:	d9402d15 	stw	r5,180(sp)
  804c98:	003c2306 	br	803d28 <__alt_mem_onchip_mem+0xff7fbd28>
  804c9c:	d8c02d17 	ldw	r3,180(sp)
  804ca0:	d9002917 	ldw	r4,164(sp)
  804ca4:	002d883a 	mov	r22,zero
  804ca8:	18800104 	addi	r2,r3,4
  804cac:	1cc0000b 	ldhu	r19,0(r3)
  804cb0:	203dc10e 	bge	r4,zero,8043b8 <__alt_mem_onchip_mem+0xff7fc3b8>
  804cb4:	003f7506 	br	804a8c <__alt_mem_onchip_mem+0xff7fca8c>
  804cb8:	04002074 	movhi	r16,129
  804cbc:	840a8504 	addi	r16,r16,10772
  804cc0:	003acc06 	br	8037f4 <__alt_mem_onchip_mem+0xff7fb7f4>
  804cc4:	d9002c17 	ldw	r4,176(sp)
  804cc8:	d9801e04 	addi	r6,sp,120
  804ccc:	b80b883a 	mov	r5,r23
  804cd0:	0809b780 	call	809b78 <__sprint_r>
  804cd4:	103a3b1e 	bne	r2,zero,8035c4 <__alt_mem_onchip_mem+0xff7fb5c4>
  804cd8:	dc402617 	ldw	r17,152(sp)
  804cdc:	d8c02017 	ldw	r3,128(sp)
  804ce0:	da000404 	addi	r8,sp,16
  804ce4:	003f9c06 	br	804b58 <__alt_mem_onchip_mem+0xff7fcb58>
  804ce8:	ac400043 	ldbu	r17,1(r21)
  804cec:	94800814 	ori	r18,r18,32
  804cf0:	ad400044 	addi	r21,r21,1
  804cf4:	8c403fcc 	andi	r17,r17,255
  804cf8:	8c40201c 	xori	r17,r17,128
  804cfc:	8c7fe004 	addi	r17,r17,-128
  804d00:	00398f06 	br	803340 <__alt_mem_onchip_mem+0xff7fb340>
  804d04:	d8c02d15 	stw	r3,180(sp)
  804d08:	0039883a 	mov	fp,zero
  804d0c:	003e3506 	br	8045e4 <__alt_mem_onchip_mem+0xff7fc5e4>
  804d10:	d9002c17 	ldw	r4,176(sp)
  804d14:	d9801e04 	addi	r6,sp,120
  804d18:	b80b883a 	mov	r5,r23
  804d1c:	0809b780 	call	809b78 <__sprint_r>
  804d20:	103a281e 	bne	r2,zero,8035c4 <__alt_mem_onchip_mem+0xff7fb5c4>
  804d24:	d8c02017 	ldw	r3,128(sp)
  804d28:	da000404 	addi	r8,sp,16
  804d2c:	003cd006 	br	804070 <__alt_mem_onchip_mem+0xff7fc070>
  804d30:	8009883a 	mov	r4,r16
  804d34:	da003d15 	stw	r8,244(sp)
  804d38:	08099e40 	call	8099e4 <strlen>
  804d3c:	d8802e15 	stw	r2,184(sp)
  804d40:	da003d17 	ldw	r8,244(sp)
  804d44:	103c340e 	bge	r2,zero,803e18 <__alt_mem_onchip_mem+0xff7fbe18>
  804d48:	0005883a 	mov	r2,zero
  804d4c:	003c3206 	br	803e18 <__alt_mem_onchip_mem+0xff7fbe18>
  804d50:	d9002c17 	ldw	r4,176(sp)
  804d54:	d9801e04 	addi	r6,sp,120
  804d58:	b80b883a 	mov	r5,r23
  804d5c:	0809b780 	call	809b78 <__sprint_r>
  804d60:	103a181e 	bne	r2,zero,8035c4 <__alt_mem_onchip_mem+0xff7fb5c4>
  804d64:	d8c02017 	ldw	r3,128(sp)
  804d68:	d8801f17 	ldw	r2,124(sp)
  804d6c:	da000404 	addi	r8,sp,16
  804d70:	d9403317 	ldw	r5,204(sp)
  804d74:	10800044 	addi	r2,r2,1
  804d78:	44000015 	stw	r16,0(r8)
  804d7c:	28c7883a 	add	r3,r5,r3
  804d80:	003b7d06 	br	803b78 <__alt_mem_onchip_mem+0xff7fbb78>
  804d84:	01002074 	movhi	r4,129
  804d88:	210a9984 	addi	r4,r4,10854
  804d8c:	d9003515 	stw	r4,212(sp)
  804d90:	003b1406 	br	8039e4 <__alt_mem_onchip_mem+0xff7fb9e4>
  804d94:	013fffc4 	movi	r4,-1
  804d98:	003a3506 	br	803670 <__alt_mem_onchip_mem+0xff7fb670>
  804d9c:	0023883a 	mov	r17,zero
  804da0:	003d9d06 	br	804418 <__alt_mem_onchip_mem+0xff7fc418>
  804da4:	d9002c17 	ldw	r4,176(sp)
  804da8:	d9801e04 	addi	r6,sp,120
  804dac:	b80b883a 	mov	r5,r23
  804db0:	0809b780 	call	809b78 <__sprint_r>
  804db4:	103a031e 	bne	r2,zero,8035c4 <__alt_mem_onchip_mem+0xff7fb5c4>
  804db8:	d8c02017 	ldw	r3,128(sp)
  804dbc:	da000404 	addi	r8,sp,16
  804dc0:	003d9406 	br	804414 <__alt_mem_onchip_mem+0xff7fc414>
  804dc4:	01002074 	movhi	r4,129
  804dc8:	210a9584 	addi	r4,r4,10838
  804dcc:	d9002b15 	stw	r4,172(sp)
  804dd0:	d9002b17 	ldw	r4,172(sp)
  804dd4:	1c47883a 	add	r3,r3,r17
  804dd8:	10800044 	addi	r2,r2,1
  804ddc:	41000015 	stw	r4,0(r8)
  804de0:	44400115 	stw	r17,4(r8)
  804de4:	d8c02015 	stw	r3,128(sp)
  804de8:	d8801f15 	stw	r2,124(sp)
  804dec:	010001c4 	movi	r4,7
  804df0:	20bfd716 	blt	r4,r2,804d50 <__alt_mem_onchip_mem+0xff7fcd50>
  804df4:	42000204 	addi	r8,r8,8
  804df8:	003fdd06 	br	804d70 <__alt_mem_onchip_mem+0xff7fcd70>
  804dfc:	d9002c17 	ldw	r4,176(sp)
  804e00:	d9801e04 	addi	r6,sp,120
  804e04:	b80b883a 	mov	r5,r23
  804e08:	0809b780 	call	809b78 <__sprint_r>
  804e0c:	1039ed1e 	bne	r2,zero,8035c4 <__alt_mem_onchip_mem+0xff7fb5c4>
  804e10:	d8802617 	ldw	r2,152(sp)
  804e14:	d8c02017 	ldw	r3,128(sp)
  804e18:	da000404 	addi	r8,sp,16
  804e1c:	003e1006 	br	804660 <__alt_mem_onchip_mem+0xff7fc660>
  804e20:	00800044 	movi	r2,1
  804e24:	10803fcc 	andi	r2,r2,255
  804e28:	00c00044 	movi	r3,1
  804e2c:	10fa3526 	beq	r2,r3,803704 <__alt_mem_onchip_mem+0xff7fb704>
  804e30:	00c00084 	movi	r3,2
  804e34:	10fbcb26 	beq	r2,r3,803d64 <__alt_mem_onchip_mem+0xff7fbd64>
  804e38:	003a8f06 	br	803878 <__alt_mem_onchip_mem+0xff7fb878>
  804e3c:	01002074 	movhi	r4,129
  804e40:	210a9984 	addi	r4,r4,10854
  804e44:	d9003515 	stw	r4,212(sp)
  804e48:	003b7606 	br	803c24 <__alt_mem_onchip_mem+0xff7fbc24>
  804e4c:	d8802917 	ldw	r2,164(sp)
  804e50:	00c00184 	movi	r3,6
  804e54:	1880012e 	bgeu	r3,r2,804e5c <___vfprintf_internal_r+0x1ca0>
  804e58:	1805883a 	mov	r2,r3
  804e5c:	d8802e15 	stw	r2,184(sp)
  804e60:	1000ef16 	blt	r2,zero,805220 <___vfprintf_internal_r+0x2064>
  804e64:	04002074 	movhi	r16,129
  804e68:	d8802a15 	stw	r2,168(sp)
  804e6c:	dcc02d15 	stw	r19,180(sp)
  804e70:	d8002915 	stw	zero,164(sp)
  804e74:	d8003215 	stw	zero,200(sp)
  804e78:	840a9304 	addi	r16,r16,10828
  804e7c:	0039883a 	mov	fp,zero
  804e80:	003aa206 	br	80390c <__alt_mem_onchip_mem+0xff7fb90c>
  804e84:	0021883a 	mov	r16,zero
  804e88:	003e0706 	br	8046a8 <__alt_mem_onchip_mem+0xff7fc6a8>
  804e8c:	d9002c17 	ldw	r4,176(sp)
  804e90:	d9801e04 	addi	r6,sp,120
  804e94:	b80b883a 	mov	r5,r23
  804e98:	0809b780 	call	809b78 <__sprint_r>
  804e9c:	1039c91e 	bne	r2,zero,8035c4 <__alt_mem_onchip_mem+0xff7fb5c4>
  804ea0:	d8802617 	ldw	r2,152(sp)
